ccopy_reg
_reconstructor
p1
(celbow.chemistry.MoleculeClass
MoleculeClass
p2
c__builtin__
list
p3
(lp4
(ielbow.chemistry.AtomClass
AtomClass
p5
(dp6
S'tempFactor'
p7
F20
sS'tmp_id'
p8
I140376063622680
sS'input_xyz'
p9
(ielbow.chemistry.xyzClass
xyzClass
p10
(dp11
S'dotProduct'
p12
I1
sS'angleScale'
p13
F57.295779513082323
sS'y'
F-1.0569999999999999
sS'x'
F5.2329999999999997
sS'xyz'
p14
(F5.2329999999999997
F-1.0569999999999999
F-1.2929999999999999
tp15
sS'z'
F-1.2929999999999999
sbsS'starting_xyz'
p16
(ielbow.chemistry.xyzClass
xyzClass
p17
(dp18
g12
I1
sg13
F57.295779513082323
sS'y'
F0
sS'x'
F0
sg14
(F0
F0
F0
tp19
sS'z'
F0
sbsg14
(ielbow.chemistry.xyzClass
xyzClass
p20
(dp21
g12
I1
sg13
F57.295779513082323
sS'y'
F-1.9370149196854434
sS'x'
F0.063814889365408467
sg14
(F0.063814889365408467
F-1.9370149196854434
F-5.1109528403872853
tp22
sS'z'
F-5.1109528403872853
sbsS'number'
p23
I6
sS'sign'
p24
S''
sS'ring_id'
p25
(lp26
sS'alt_name'
p27
S'C1'
p28
sS'exclude'
p29
I00
sS'resName'
p30
S'R3Z'
p31
sS'planar_input'
p32
I01
sS'serial'
p33
S'    1'
p34
sS'ring_atom'
p35
I1
sS'id'
p36
I140376063622680
sS'bonded'
p37
(lp38
(ielbow.chemistry.AtomClass
AtomClass
p39
(dp40
g7
F20
sg8
I140376063622608
sg9
(ielbow.chemistry.xyzClass
xyzClass
p41
(dp42
g12
I1
sg13
F57.295779513082323
sS'y'
F-1.9239999999999999
sS'x'
F4.1689999999999996
sg14
(F4.1689999999999996
F-1.9239999999999999
F-1.456
tp43
sS'z'
F-1.456
sbsg16
(ielbow.chemistry.xyzClass
xyzClass
p44
(dp45
g12
I1
sg13
F57.295779513082323
sS'y'
F0
sS'x'
F1.4116714481627792
sg14
(F1.4116714481627792
F0
F0
tp46
sS'z'
F0
sbsg14
(ielbow.chemistry.xyzClass
xyzClass
p47
(dp48
g12
I1
sg13
F57.295779513082323
sS'y'
F-2.8726344907992667
sS'x'
F0.70434747854083835
sg14
(F0.70434747854083835
F-2.8726344907992667
F-4.2542692162822364
tp49
sS'z'
F-4.2542692162822364
sbsg23
I6
sg24
S''
sg25
(lp50
sg27
S'C2'
p51
sg29
I00
sg30
S'R3Z'
p52
sg32
I01
sg33
S'    2'
p53
sg35
I1
sg36
I140376063622608
sg37
(lp54
g5
a(ielbow.chemistry.AtomClass
AtomClass
p55
(dp56
g7
F20
sg8
I140376063622968
sg9
(ielbow.chemistry.xyzClass
xyzClass
p57
(dp58
g12
I1
sg13
F57.295779513082323
sS'y'
F-1.6060000000000001
sS'x'
F2.9279999999999999
sg14
(F2.9279999999999999
F-1.6060000000000001
F-0.93799999999999994
tp59
sS'z'
F-0.93799999999999994
sbsg16
(ielbow.chemistry.xyzClass
xyzClass
p60
(dp61
g12
I1
sg13
F57.295779513082323
sS'y'
F0
sS'x'
F2.1128180150659981
sg14
(F2.1128180150659981
F0
F1.2115731389931981
tp62
sS'z'
F1.2115731389931981
sbsg14
(ielbow.chemistry.xyzClass
xyzClass
p63
(dp64
g12
I1
sg13
F57.295779513082323
sS'y'
F-2.5349498573163767
sS'x'
F0.97144801997219021
sg14
(F0.97144801997219021
F-2.5349498573163767
F-2.9185607546155352
tp65
sS'z'
F-2.9185607546155352
sbsg23
I6
sg24
S''
sg25
(lp66
sg27
S'C3'
p67
sg29
I00
sg30
S'R3Z'
p68
sg32
I01
sg33
S'    3'
p69
sg35
I1
sg36
I140376063622968
sg37
(lp70
g39
a(ielbow.chemistry.AtomClass
AtomClass
p71
(dp72
g7
F20
sg8
I140376063622896
sg9
(ielbow.chemistry.xyzClass
xyzClass
p73
(dp74
g12
I1
sg13
F57.295779513082323
sS'y'
F-0.41399999999999998
sS'x'
F2.7469999999999999
sg14
(F2.7469999999999999
F-0.41399999999999998
F-0.253
tp75
sS'z'
F-0.253
sbsg16
(ielbow.chemistry.xyzClass
xyzClass
p76
(dp77
g12
I1
sg13
F57.295779513082323
sS'y'
F0
sS'x'
F1.4162142356022314
sg14
(F1.4162142356022314
F0
F2.4214989626669254
tp78
sS'z'
F2.4214989626669254
sbsg14
(ielbow.chemistry.xyzClass
xyzClass
p79
(dp80
g12
I1
sg13
F57.295779513082323
sS'y'
F-1.2710080550603382
sS'x'
F0.60593559545755338
sg14
(F0.60593559545755338
F-1.2710080550603382
F-2.4264016249288334
tp81
sS'z'
F-2.4264016249288334
sbsg23
I6
sg24
S''
sg25
(lp82
sg27
S'C4'
p83
sg29
I01
sg30
S'R3Z'
p84
sg32
I01
sg33
S'    4'
p85
sg35
I1
sg36
I140376063622896
sg37
(lp86
g55
a(ielbow.chemistry.AtomClass
AtomClass
p87
(dp88
g7
F20
sg8
I140376063623112
sg9
(ielbow.chemistry.xyzClass
xyzClass
p89
(dp90
g12
I1
sg13
F57.295779513082323
sS'y'
F0.46000000000000002
sS'x'
F3.8149999999999999
sg14
(F3.8149999999999999
F0.46000000000000002
F-0.089999999999999997
tp91
sS'z'
F-0.089999999999999997
sbsg16
(ielbow.chemistry.xyzClass
xyzClass
p92
(dp93
g12
I1
sg13
F57.295779513082323
sS'y'
F0
sS'x'
F-0.0042793675136914011
sg14
(F-0.0042793675136914011
F0
F2.4213492947626443
tp94
sS'z'
F2.4213492947626443
sbsg14
(ielbow.chemistry.xyzClass
xyzClass
p95
(dp96
g12
I1
sg13
F57.295779513082323
sS'y'
F-0.33118009996741793
sS'x'
F-0.037080610172904205
sg14
(F-0.037080610172904205
F-0.33118009996741793
F-3.285587147149422
tp97
sS'z'
F-3.285587147149422
sbsg23
I6
sg24
S''
sg25
(lp98
sg27
S'C5'
p99
sg29
I01
sg30
S'R3Z'
p100
sg32
I01
sg33
S'    5'
p101
sg35
I1
sg36
I140376063623112
sg37
(lp102
g71
a(ielbow.chemistry.AtomClass
AtomClass
p103
(dp104
g7
F20
sg8
I140376066009208
sg9
(ielbow.chemistry.xyzClass
xyzClass
p105
(dp106
g12
I1
sg13
F57.295779513082323
sS'y'
F0.13300000000000001
sS'x'
F5.0579999999999998
sg14
(F5.0579999999999998
F0.13300000000000001
F-0.61099999999999999
tp107
sS'z'
F-0.61099999999999999
sbsg16
(ielbow.chemistry.xyzClass
xyzClass
p108
(dp109
g12
I1
sg13
F57.295779513082323
sS'y'
F0
sS'x'
F-0.70092356980635417
sg14
(F-0.70092356980635417
F0
F1.2111436841337884
tp110
sS'z'
F1.2111436841337884
sbsg14
(ielbow.chemistry.xyzClass
xyzClass
p111
(dp112
g12
I1
sg13
F57.295779513082323
sS'y'
F-0.67253282889651289
sS'x'
F-0.30305615702484956
sg14
(F-0.30305615702484956
F-0.67253282889651289
F-4.6224729867448451
tp113
sS'z'
F-4.6224729867448451
sbsg23
I6
sg24
S''
sg25
(lp114
sg27
S'C6'
p115
sg29
I00
sg30
S'R3Z'
p116
sg32
I01
sg33
S'    6'
p117
sg35
I1
sg36
I140376066009208
sg37
(lp118
g5
ag87
a(ielbow.chemistry.AtomClass
AtomClass
p119
(dp120
g7
F20
sg8
I140376066751952
sg9
(ielbow.chemistry.xyzClass
xyzClass
p121
(dp122
g12
I1
sg13
F57.295779513082323
sS'y'
F0.81000000000000005
sS'x'
F5.891
sg14
(F5.891
F0.81000000000000005
F-0.48499999999999999
tp123
sS'z'
F-0.48499999999999999
sbsg16
(ielbow.chemistry.xyzClass
xyzClass
p124
(dp125
g12
I0
sg13
F57.295779513082323
sS'y'
F-1.1490211855345678e-16
sS'x'
F-1.7842318288356778
sg14
(F-1.7842318288356778
F-1.1490211855345678e-16
F1.2098766403868872
tp126
sS'z'
F1.2098766403868872
sbsg14
(ielbow.chemistry.xyzClass
xyzClass
p127
(dp128
g12
I0
sg13
F57.295779513082323
sS'y'
F0.044495250598933778
sS'x'
F-0.7946071161934225
sg14
(F-0.7946071161934225
F0.044495250598933778
F-5.2805866808427302
tp129
sS'z'
F-5.2805866808427302
sbsg23
I1
sg24
S''
sg25
(lp130
sg27
S'H6'
p131
sg30
S'R3Z'
p132
sS'record_name'
p133
S'HETATM'
p134
sg33
S'   27'
p135
sg36
I140376066751952
sg37
(lp136
g103
asS'pi_electrons'
p137
NsS'index'
p138
I27
sS'pre_pdb_write_index'
p139
NsS'stored_xyz'
p140
g121
sS'occupancy'
p141
F1
sS'charge'
p142
I0
sS'input_index'
p143
I26
sS'cip_done'
p144
S'140376063730360_3'
p145
sS'unique_residue_key'
p146
S'R3Z:1:A:'
p147
sS'unique_residue_key_altloc'
p148
S'R3Z:1:A:???'
p149
sS'ring_id_backup'
p150
(lp151
sS'chainID'
p152
S'A'
sS'cif_name'
p153
S' H6 '
p154
sS'cif_index'
p155
I26
sS'symbol'
p156
S'H'
sS'segID'
p157
S'A'
sS'original_serial'
p158
S'   27'
p159
sS'input_name'
p160
g154
sS'randomised'
p161
I01
sS'cif_energy_type'
p162
S'HCR6'
p163
sS'old_xyz'
p164
g127
sS'name'
p165
g154
sS'z'
F-5.2805866808427302
sS'beginning_xyz'
p166
g121
sS'chiral'
p167
S''
sS'resSeq'
p168
I1
sS'original_index'
p169
I27
sS'element'
p170
S'H'
sS'iCode'
p171
S' '
sS'mass'
p172
F1.0079
sS'y'
F0.044495250598933778
sS'x'
F-0.7946071161934225
sS'hcount'
p173
I0
sS'rotation_index'
p174
I26
sbasg137
(I1
tp175
sg138
I6
sg139
Nsg140
g105
sg148
S'R3Z:1:A:???'
p176
sS'aromatic'
p177
I01
sg142
I0
sg168
I1
sg143
I5
sg144
S'140376063730360_3'
p178
sg146
S'R3Z:1:A:'
p179
sg141
F1
sg150
(lp180
sg152
S'A'
sg153
S' C6 '
p181
sg155
I5
sg133
g134
sg156
S'C'
sg157
S'A'
sg158
S'    6'
p182
sg160
g181
sg161
I01
sg162
S'CR16'
p183
sg164
g111
sg165
g181
sS'z'
F-4.6224729867448451
sg166
g105
sg167
S''
sS'alternating_ring_index'
p184
I1
sS'ring_bonded'
p185
(lp186
(ielbow.chemistry.RingClass
empty
p187
(dp188
g138
I1
sg9
g10
sg184
I0
sg16
(ielbow.chemistry.xyzClass
xyzClass
p189
(dp190
g12
I0
sg13
F57.295779513082323
sS'y'
F-1.3856406460551023
sS'x'
F0.80000000000000082
sg14
(F0.80000000000000082
F-1.3856406460551023
F0
tp191
sS'z'
F0
sbsg156
S'C'
sg185
(lp192
(ielbow.chemistry.RingClass
empty
p193
(dp194
g138
I2
sg9
g41
sg184
I1
sg16
(ielbow.chemistry.xyzClass
xyzClass
p195
(dp196
g12
I0
sg13
F57.295779513082323
sS'y'
F-1.3856406460551023
sS'x'
F-0.80000000000000016
sg14
(F-0.80000000000000016
F-1.3856406460551023
F0
tp197
sS'z'
F0
sbsg156
S'C'
sg185
(lp198
(ielbow.chemistry.RingClass
empty
p199
(dp200
g138
I3
sg9
g57
sg184
I0
sg16
(ielbow.chemistry.xyzClass
xyzClass
p201
(dp202
g12
I0
sg13
F57.295779513082323
sS'y'
F-4.4408920985006262e-16
sS'x'
F-1.6000000000000005
sg14
(F-1.6000000000000005
F-4.4408920985006262e-16
F0
tp203
sS'z'
F0
sbsg156
S'C'
sg185
(lp204
(ielbow.chemistry.RingClass
empty
p205
(dp206
g138
I4
sg9
g73
sg184
I1
sg16
(ielbow.chemistry.xyzClass
xyzClass
p207
(dp208
g12
I0
sg13
F57.295779513082323
sS'y'
F1.3856406460551018
sS'x'
F-0.8000000000000006
sg14
(F-0.8000000000000006
F1.3856406460551018
F0
tp209
sS'z'
F0
sbsg156
S'C'
sg185
(lp210
(ielbow.chemistry.RingClass
empty
p211
(dp212
g138
I5
sg9
g89
sg184
I0
sg16
(ielbow.chemistry.xyzClass
xyzClass
p213
(dp214
g12
I0
sg13
F57.295779513082323
sS'y'
F1.3856406460551023
sS'x'
F0.79999999999999971
sg14
(F0.79999999999999971
F1.3856406460551023
F0
tp215
sS'z'
F0
sbsg156
S'C'
sg185
(lp216
(ielbow.chemistry.RingClass
empty
p217
(dp218
g138
I6
sg9
g105
sg184
I1
sg16
(ielbow.chemistry.xyzClass
xyzClass
p219
(dp220
g12
I0
sg13
F57.295779513082323
sS'y'
F4.4408920985006262e-16
sS'x'
F1.6000000000000005
sg14
(F1.6000000000000005
F4.4408920985006262e-16
F0
tp221
sS'z'
F0
sbsg156
S'C'
sg185
g186
sg177
S'Y'
sS'overlap'
p222
I01
sS'ring_indices_list'
p223
(lp224
I0
asg29
I00
sg14
(ielbow.chemistry.xyzClass
xyzClass
p225
(dp226
g12
I1
sg13
F57.295779513082323
sS'y'
F0.17986085188173068
sS'x'
F-1.0654979417689574
sg14
(F-1.0654979417689574
F0.17986085188173068
F-0.72210514400527659
tp227
sS'z'
F-0.72210514400527659
sbsbag205
a(ielbow.chemistry.RingClass
empty
p228
(dp229
g138
I7
sg9
(ielbow.chemistry.xyzClass
xyzClass
p230
(dp231
g12
I1
sg13
F57.295779513082323
sS'y'
F1.6379999999999999
sS'x'
F3.657
sg14
(F3.657
F1.6379999999999999
F0.57299999999999995
tp232
sS'z'
F0.57299999999999995
sbsg184
I0
sg16
(ielbow.chemistry.xyzClass
xyzClass
p233
(dp234
g12
I0
sg13
F57.295779513082323
sS'y'
F-4.4408920985006262e-16
sS'x'
F-1.6000000000000005
sg14
(F-1.6000000000000005
F-4.4408920985006262e-16
F0
tp235
sS'z'
F0
sbsg156
S'O'
sg185
(lp236
(ielbow.chemistry.RingClass
empty
p237
(dp238
g138
I8
sg9
(ielbow.chemistry.xyzClass
xyzClass
p239
(dp240
g12
I1
sg13
F57.295779513082323
sS'y'
F1.7569999999999999
sS'x'
F2.4980000000000002
sg14
(F2.4980000000000002
F1.7569999999999999
F1.4039999999999999
tp241
sS'z'
F1.4039999999999999
sbsg184
I1
sg16
(ielbow.chemistry.xyzClass
xyzClass
p242
(dp243
g12
I0
sg13
F57.295779513082323
sS'y'
F1.3856406460551018
sS'x'
F-0.8000000000000006
sg14
(F-0.8000000000000006
F1.3856406460551018
F0
tp244
sS'z'
F0
sbsg156
S'C'
sg185
(lp245
(ielbow.chemistry.RingClass
empty
p246
(dp247
g138
I9
sg9
(ielbow.chemistry.xyzClass
xyzClass
p248
(dp249
g12
I1
sg13
F57.295779513082323
sS'y'
F1.25
sS'x'
F1.2849999999999999
sg14
(F1.2849999999999999
F1.25
F0.61299999999999999
tp250
sS'z'
F0.61299999999999999
sbsg184
I0
sg16
(ielbow.chemistry.xyzClass
xyzClass
p251
(dp252
g12
I0
sg13
F57.295779513082323
sS'y'
F1.3856406460551023
sS'x'
F0.79999999999999971
sg14
(F0.79999999999999971
F1.3856406460551023
F0
tp253
sS'z'
F0
sbsg156
S'C'
sg185
(lp254
(ielbow.chemistry.RingClass
empty
p255
(dp256
g138
I10
sg9
(ielbow.chemistry.xyzClass
xyzClass
p257
(dp258
g12
I1
sg13
F57.295779513082323
sS'y'
F-0.11700000000000001
sS'x'
F1.52
sg14
(F1.52
F-0.11700000000000001
F0.25800000000000001
tp259
sS'z'
F0.25800000000000001
sbsg184
I1
sg16
(ielbow.chemistry.xyzClass
xyzClass
p260
(dp261
g12
I0
sg13
F57.295779513082323
sS'y'
F4.4408920985006262e-16
sS'x'
F1.6000000000000005
sg14
(F1.6000000000000005
F4.4408920985006262e-16
F0
tp262
sS'z'
F0
sbsg156
S'O'
sg185
(lp263
(ielbow.chemistry.RingClass
empty
p264
(dp265
g138
I4
sg9
g73
sg184
I0
sg16
(ielbow.chemistry.xyzClass
xyzClass
p266
(dp267
g12
I0
sg13
F57.295779513082323
sS'y'
F-1.3856406460551023
sS'x'
F0.80000000000000082
sg14
(F0.80000000000000082
F-1.3856406460551023
F0
tp268
sS'z'
F0
sbsg156
S'C'
sg185
(lp269
(ielbow.chemistry.RingClass
empty
p270
(dp271
g138
I5
sg9
g89
sg184
I1
sg16
(ielbow.chemistry.xyzClass
xyzClass
p272
(dp273
g12
I0
sg13
F57.295779513082323
sS'y'
F-1.3856406460551023
sS'x'
F-0.80000000000000016
sg14
(F-0.80000000000000016
F-1.3856406460551023
F0
tp274
sS'z'
F0
sbsg156
S'C'
sg185
(lp275
g228
ag264
ag217
asg177
S'Y'
sg222
I01
sg223
(lp276
I1
aI0
asg29
I01
sg14
(ielbow.chemistry.xyzClass
xyzClass
p277
(dp278
g12
I1
sg13
F57.295779513082323
sS'y'
F-0.15520217693638516
sS'x'
F-0.6659570347260918
sg14
(F-0.6659570347260918
F-0.15520217693638516
F0.58806093567220985
tp279
sS'z'
F0.58806093567220985
sbsbag255
ag199
asg177
S'Y'
sg222
I01
sg223
(lp280
I1
aI0
asg29
I01
sg14
(ielbow.chemistry.xyzClass
xyzClass
p281
(dp282
g12
I1
sg13
F57.295779513082323
sS'y'
F-0.085985737259163364
sS'x'
F0.69033278364639727
sg14
(F0.69033278364639727
F-0.085985737259163364
F0.93953576978845077
tp283
sS'z'
F0.93953576978845077
sbsbag246
asg222
I01
sg223
(lp284
I1
asg29
I00
sg14
(ielbow.chemistry.xyzClass
xyzClass
p285
(dp286
g12
I1
sg13
F57.295779513082323
sS'y'
F-0.28042548990988403
sS'x'
F1.0628650393828709
sg14
(F1.0628650393828709
F-0.28042548990988403
F2.3083377045794005
tp287
sS'z'
F2.3083377045794005
sbsbag237
asg222
I01
sg223
(lp288
I1
asg29
I00
sg14
(ielbow.chemistry.xyzClass
xyzClass
p289
(dp290
g12
I1
sg13
F57.295779513082323
sS'y'
F-0.71231883559952269
sS'x'
F0.1058821499673841
sg14
(F0.1058821499673841
F-0.71231883559952269
F3.2194246229773316
tp291
sS'z'
F3.2194246229773316
sbsbag228
asg222
I01
sg223
(lp292
I1
asg29
I00
sg14
(ielbow.chemistry.xyzClass
xyzClass
p293
(dp294
g12
I1
sg13
F57.295779513082323
sS'y'
F-0.031917674867656953
sS'x'
F-1.259331558939107
sg14
(F-1.259331558939107
F-0.031917674867656953
F2.945920167185105
tp295
sS'z'
F2.945920167185105
sbsbag270
asg222
I01
sg223
(lp296
I1
asg29
I00
sg14
(ielbow.chemistry.xyzClass
xyzClass
p297
(dp298
g12
I1
sg13
F57.295779513082323
sS'y'
F-0.22342090182764715
sS'x'
F-1.6494294853998659
sg14
(F-1.6494294853998659
F-0.22342090182764715
F1.6256832560507166
tp299
sS'z'
F1.6256832560507166
sbsbasg177
S'Y'
sg222
I01
sg223
(lp300
I0
aI1
asg29
I01
sg14
g277
sbag199
ag255
asg177
S'Y'
sg222
I01
sg223
(lp301
I0
aI1
asg29
I01
sg14
g281
sbag193
asg177
S'Y'
sg222
I01
sg223
(lp302
I0
asg29
I00
sg14
(ielbow.chemistry.xyzClass
xyzClass
p303
(dp304
g12
I1
sg13
F57.295779513082323
sS'y'
F0.31894079064218789
sS'x'
F1.6398015638683472
sg14
(F1.6398015638683472
F0.31894079064218789
F-0.021878877688755516
tp305
sS'z'
F-0.021878877688755516
sbsbag187
asg177
S'Y'
sg222
I01
sg223
(lp306
I0
asg29
I00
sg14
(ielbow.chemistry.xyzClass
xyzClass
p307
(dp308
g12
I1
sg13
F57.295779513082323
sS'y'
F0.65061021728076363
sS'x'
F1.2351073036242703
sg14
(F1.2351073036242703
F0.65061021728076363
F-1.3177493590420375
tp309
sS'z'
F-1.3177493590420375
sbsbag217
asg177
S'Y'
sg222
I01
sg223
(lp310
I0
asg29
I00
sg14
(ielbow.chemistry.xyzClass
xyzClass
p311
(dp312
g12
I1
sg13
F57.295779513082323
sS'y'
F0.58104687079112483
sS'x'
F-0.11814856857554663
sg14
(F-0.11814856857554663
F0.58104687079112483
F-1.6680478202084219
tp313
sS'z'
F-1.6680478202084219
sbsbag211
asg222
I01
sS'ring_index'
p314
I2
sg170
S'C'
sg171
S' '
sg172
F12.010999999999999
sS'zmatrix_index'
p315
I6
sg223
g224
sS'y'
F-0.67253282889651289
sS'x'
F-0.30305615702484956
sg173
I0
sg169
I6
sg174
I5
sba(ielbow.chemistry.AtomClass
AtomClass
p316
(dp317
g7
F20
sg8
I140376066008992
sg9
g230
sg16
(ielbow.chemistry.xyzClass
xyzClass
p318
(dp319
g12
I1
sg13
F57.295779513082323
sS'y'
F0.12095210549938677
sS'x'
F-0.70058621571589375
sg14
(F-0.70058621571589375
F0.12095210549938677
F3.6904187053124451
tp320
sS'z'
F3.6904187053124451
sbsg14
(ielbow.chemistry.xyzClass
xyzClass
p321
(dp322
g12
I1
sg13
F57.295779513082323
sS'y'
F1.0281874947354996
sS'x'
F-0.2449432605644426
sg14
(F-0.2449432605644426
F1.0281874947354996
F-2.8009502455579929
tp323
sS'z'
F-2.8009502455579929
sbsg23
I8
sg24
S''
sg25
(lp324
sg27
S'O7'
p325
sg30
S'R3Z'
p326
sg29
I00
sg33
S'    7'
p327
sg35
I1
sg36
I140376066008992
sg37
(lp328
g87
a(ielbow.chemistry.AtomClass
AtomClass
p329
(dp330
g7
F20
sg8
I140376066007840
sg9
g239
sg16
(ielbow.chemistry.xyzClass
xyzClass
p331
(dp332
g12
I1
sg13
F57.295779513082323
sS'y'
F0.40022247568787289
sS'x'
F0.024406862529015694
sg14
(F0.024406862529015694
F0.40022247568787289
F4.8028440735605997
tp333
sS'z'
F4.8028440735605997
sbsg14
(ielbow.chemistry.xyzClass
xyzClass
p334
(dp335
g12
I1
sg13
F57.295779513082323
sS'y'
F1.3949946323769193
sS'x'
F0.33842260640729283
sg14
(F0.33842260640729283
F1.3949946323769193
F-1.6265577759951526
tp336
sS'z'
F-1.6265577759951526
sbsg23
I6
sg24
S''
sg25
(lp337
sg27
S'C8'
p338
sg30
S'R3Z'
p339
sg29
I00
sg33
S'    8'
p340
sg35
I1
sg36
I140376066007840
sg37
(lp341
g316
a(ielbow.chemistry.AtomClass
AtomClass
p342
(dp343
g7
F20
sg8
I140376066007120
sg9
g248
sg16
(ielbow.chemistry.xyzClass
xyzClass
p344
(dp345
g12
I1
sg13
F57.295779513082323
sS'y'
F-0.3083573202234795
sS'x'
F1.3747968742795056
sg14
(F1.3747968742795056
F-0.3083573202234795
F4.8192913146093908
tp346
sS'z'
F4.8192913146093908
sbsg14
(ielbow.chemistry.xyzClass
xyzClass
p347
(dp348
g12
I1
sg13
F57.295779513082323
sS'y'
F0.2747525058759509
sS'x'
F0.32104386787398553
sg14
(F0.32104386787398553
F0.2747525058759509
F-0.58307338769168204
tp349
sS'z'
F-0.58307338769168204
sbsg23
I6
sS'chiral_index'
p350
I1
sg24
S''
sg25
(lp351
sg27
S'C9'
p352
sg30
S'R3Z'
p353
sg29
I00
sg33
S'    9'
p354
sg35
I1
sg36
I140376066007120
sg37
(lp355
g329
a(ielbow.chemistry.AtomClass
AtomClass
p356
(dp357
g7
F20
sg8
I140376066007624
sg9
g257
sg16
(ielbow.chemistry.xyzClass
xyzClass
p358
(dp359
g12
I1
sg13
F57.295779513082323
sS'y'
F-0.074420250905650576
sS'x'
F2.1081493095555333
sg14
(F2.1081493095555333
F-0.074420250905650576
F3.687924299288925
tp360
sS'z'
F3.687924299288925
sbsg14
(ielbow.chemistry.xyzClass
xyzClass
p361
(dp362
g12
I1
sg13
F57.295779513082323
sS'y'
F-0.89341668091153803
sS'x'
F0.86147066160551211
sg14
(F0.86147066160551211
F-0.89341668091153803
F-1.0524052034031683
tp363
sS'z'
F-1.0524052034031683
sbsg23
I8
sg24
S''
sg25
(lp364
sg27
S'O10'
p365
sg30
S'R3Z'
p366
sg29
I00
sg33
S'   10'
p367
sg35
I1
sg36
I140376066007624
sg37
(lp368
g71
ag342
asg137
(I2
tp369
sg138
I10
sg139
Nsg140
g257
sS'cip_priority'
p370
I3
sg148
S'R3Z:1:A:???'
p371
sg222
I01
sg142
I0
sg168
I1
sg143
I9
sg144
S'140376063730360_3'
p372
sg146
S'R3Z:1:A:'
p373
sg141
F1
sg150
(lp374
sS'junk'
p375
(ielbow.chemistry.xyzClass
xyzClass
p376
(dp377
g12
I1
sg13
F57.295779513082323
sS'y'
F-0.13874989329580809
sS'x'
F2.0049418019567669
sg14
(F2.0049418019567669
F-0.13874989329580809
F1.4172991552388203
tp378
sS'z'
F1.4172991552388203
sbsg152
S'A'
sg153
S' O10'
p379
sg155
I9
sg133
g134
sg156
S'O'
sg157
S'A'
sg158
S'   10'
p380
sg160
g379
sg161
I01
sg162
S'O2'
p381
sg164
g361
sg165
g379
sS'z'
F-1.0524052034031683
sg166
g257
sg167
S''
sg184
I1
sg185
g263
sg314
I2
sg170
S'O'
sg171
S' '
sg172
F15.9994
sg315
I8
sg223
g284
sS'y'
F-0.89341668091153803
sS'x'
F0.86147066160551211
sg173
I0
sS'cip_levels'
p382
g1
(celbow.chemistry.CIPMixins
PriorityClass
p383
g3
(lp384
I8
a(lp385
I6
aa(lp386
I6
aI6
aa(lp387
I6
aI1
aI8
aI6
aa(lp388
I6
aI1
aa(lp389
I1
aI1
aa(lp390
I6
aI1
aatRp391
sg169
I10
sg174
I9
sba(ielbow.chemistry.AtomClass
AtomClass
p392
(dp393
g7
F20
sg8
I140376066010216
sg9
(ielbow.chemistry.xyzClass
xyzClass
p394
(dp395
g12
I1
sg13
F57.295779513082323
sS'y'
F1.349
sS'x'
F0.025999999999999999
sg14
(F0.025999999999999999
F1.349
F1.4770000000000001
tp396
sS'z'
F1.4770000000000001
sbsg16
(ielbow.chemistry.xyzClass
xyzClass
p397
(dp398
g12
I1
sg13
F57.295779513082323
sS'y'
F0.1943894745549537
sS'x'
F2.1922952432884872
sg14
(F2.1922952432884872
F0.1943894745549537
F6.0618954406984757
tp399
sS'z'
F6.0618954406984757
sbsg14
(ielbow.chemistry.xyzClass
xyzClass
p400
(dp401
g12
I1
sg13
F57.295779513082323
sS'y'
F0.74041198984905376
sS'x'
F1.1438739069413062
sg14
(F1.1438739069413062
F0.74041198984905376
F0.67494295302001461
tp402
sS'z'
F0.67494295302001461
sbsg23
I6
sg24
S''
sg25
(lp403
sg27
S'C11'
p404
sg30
S'R3Z'
p405
sg133
g134
sg33
S'   11'
p406
sg36
I140376066010216
sg37
(lp407
g342
a(ielbow.chemistry.AtomClass
AtomClass
p408
(dp409
g7
F20
sg8
I140376066010720
sg9
(ielbow.chemistry.xyzClass
xyzClass
p410
(dp411
g12
I1
sg13
F57.295779513082323
sS'y'
F0.86399999999999999
sS'x'
F-1.1279999999999999
sg14
(F-1.1279999999999999
F0.86399999999999999
F0.71699999999999997
tp412
sS'z'
F0.71699999999999997
sbsg16
(ielbow.chemistry.xyzClass
xyzClass
p413
(dp414
g12
I1
sg13
F57.295779513082323
sS'y'
F0.472437421219431
sS'x'
F1.276981850112501
sg14
(F1.276981850112501
F0.472437421219431
F7.168071390823421
tp415
sS'z'
F7.168071390823421
sbsg14
(ielbow.chemistry.xyzClass
xyzClass
p416
(dp417
g12
I1
sg13
F57.295779513082323
sS'y'
F1.0129295015863706
sS'x'
F0.23433898025667155
sg14
(F0.23433898025667155
F1.0129295015863706
F1.7777267229285778
tp418
sS'z'
F1.7777267229285778
sbsg23
I7
sg24
S''
sg25
(lp419
sg27
S'N12'
p420
sg29
I00
sg30
S'R3Z'
p421
sg32
I01
sg33
S'   12'
p422
sg35
I2
sg36
I140376066010720
sg37
(lp423
g392
a(ielbow.chemistry.AtomClass
AtomClass
p424
(dp425
g7
F20
sg8
I140376066011008
sg9
(ielbow.chemistry.xyzClass
xyzClass
p426
(dp427
g12
I1
sg13
F57.295779513082323
sS'y'
F-0.49199999999999999
sS'x'
F-1.4770000000000001
sg14
(F-1.4770000000000001
F-0.49199999999999999
F0.77400000000000002
tp428
sS'z'
F0.77400000000000002
sbsg16
(ielbow.chemistry.xyzClass
xyzClass
p429
(dp430
g12
I1
sg13
F57.295779513082323
sS'y'
F-0.63757759942964642
sS'x'
F0.68319491423525502
sg14
(F0.68319491423525502
F-0.63757759942964642
F7.9217655011182995
tp431
sS'z'
F7.9217655011182995
sbsg14
(ielbow.chemistry.xyzClass
xyzClass
p432
(dp433
g12
I1
sg13
F57.295779513082323
sS'y'
F-0.083222050693002592
sS'x'
F-0.18038820127620814
sg14
(F-0.18038820127620814
F-0.083222050693002592
F2.6817188745486344
tp434
sS'z'
F2.6817188745486344
sbsg23
I6
sg24
S''
sg25
(lp435
sg27
S'C13'
p436
sg29
I01
sg30
S'R3Z'
p437
sg32
I01
sg33
S'   13'
p438
sg35
I2
sg36
I140376066011008
sg37
(lp439
g408
a(ielbow.chemistry.AtomClass
AtomClass
p440
(dp441
g7
F20
sg8
I140376066007552
sg9
(ielbow.chemistry.xyzClass
xyzClass
p442
(dp443
g12
I1
sg13
F57.295779513082323
sS'y'
F-1.536
sS'x'
F-0.88200000000000001
sg14
(F-0.88200000000000001
F-1.536
F1.4730000000000001
tp444
sS'z'
F1.4730000000000001
sbsg16
(ielbow.chemistry.xyzClass
xyzClass
p445
(dp446
g12
I1
sg13
F57.295779513082323
sS'y'
F-2.2288487258574441
sS'x'
F0.77804491171493717
sg14
(F0.77804491171493717
F-2.2288487258574441
F7.7230655303119109
tp447
sS'z'
F7.7230655303119109
sbsg14
(ielbow.chemistry.xyzClass
xyzClass
p448
(dp449
g12
I1
sg13
F57.295779513082323
sS'y'
F-1.669941863071184
sS'x'
F0.15447000876881378
sg14
(F0.15447000876881378
F-1.669941863071184
F2.674504685148186
tp450
sS'z'
F2.674504685148186
sbsg23
I6
sg24
S''
sg25
(lp451
sg27
S'C14'
p452
sg29
I00
sg30
S'R3Z'
p453
sg32
I01
sg33
S'   14'
p454
sg35
I2
sg36
I140376066007552
sg37
(lp455
g424
a(ielbow.chemistry.AtomClass
AtomClass
p456
(dp457
g7
F20
sg8
I140376066010648
sg9
(ielbow.chemistry.xyzClass
xyzClass
p458
(dp459
g12
I1
sg13
F57.295779513082323
sS'y'
F-2.7280000000000002
sS'x'
F-1.454
sg14
(F-1.454
F-2.7280000000000002
F1.3220000000000001
tp460
sS'z'
F1.3220000000000001
sbsg16
(ielbow.chemistry.xyzClass
xyzClass
p461
(dp462
g12
I1
sg13
F57.295779513082323
sS'y'
F-2.8639115899526977
sS'x'
F-0.0083801421125363484
sg14
(F-0.0083801421125363484
F-2.8639115899526977
F8.7584913353993716
tp463
sS'z'
F8.7584913353993716
sbsg14
(ielbow.chemistry.xyzClass
xyzClass
p464
(dp465
g12
I1
sg13
F57.295779513082323
sS'y'
F-2.2851918509104774
sS'x'
F-0.52195845556579068
sg14
(F-0.52195845556579068
F-2.2851918509104774
F3.8051421729879209
tp466
sS'z'
F3.8051421729879209
sbsg23
I6
sg24
S''
sg25
(lp467
sg27
S'C15'
p468
sg29
I00
sg30
S'R3Z'
p469
sg32
I01
sg33
S'   15'
p470
sg35
I2
sg36
I140376066010648
sg37
(lp471
g440
a(ielbow.chemistry.AtomClass
AtomClass
p472
(dp473
g7
F20
sg8
I140376066748856
sg9
(ielbow.chemistry.xyzClass
xyzClass
p474
(dp475
g12
I1
sg13
F57.295779513082323
sS'y'
F-2.641
sS'x'
F-2.7999999999999998
sg14
(F-2.7999999999999998
F-2.641
F0.28100000000000003
tp476
sS'z'
F0.28100000000000003
sbsg16
(ielbow.chemistry.xyzClass
xyzClass
p477
(dp478
g12
I0
sg13
F57.295779513082323
sS'y'
F-1.747474203126687
sS'x'
F-0.6239886916622297
sg14
(F-0.6239886916622297
F-1.747474203126687
F9.6404308329042703
tp479
sS'z'
F9.6404308329042703
sbsg14
(ielbow.chemistry.xyzClass
xyzClass
p480
(dp481
g12
I1
sg13
F57.295779513082323
sS'y'
F-1.1667938471020056
sS'x'
F-1.2952052186993881
sg14
(F-1.2952052186993881
F-1.1667938471020056
F4.5654560382223952
tp482
sS'z'
F4.5654560382223952
sbsg23
I16
sg24
S''
sg25
(lp483
sg27
S'S16'
p484
sg29
I00
sg30
S'R3Z'
p485
sg32
I01
sg33
S'   16'
p486
sg35
I2
sg36
I140376066748856
sg37
(lp487
g456
a(ielbow.chemistry.AtomClass
AtomClass
p488
(dp489
g7
F20
sg8
I140376066749072
sg9
(ielbow.chemistry.xyzClass
xyzClass
p490
(dp491
g12
I1
sg13
F57.295779513082323
sS'y'
F-0.91400000000000003
sS'x'
F-2.5739999999999998
sg14
(F-2.5739999999999998
F-0.91400000000000003
F0.042999999999999997
tp492
sS'z'
F0.042999999999999997
sbsg16
(ielbow.chemistry.xyzClass
xyzClass
p493
(dp494
g12
I1
sg13
F57.295779513082323
sS'y'
F-0.37228115263190831
sS'x'
F-0.14993843194293638
sg14
(F-0.14993843194293638
F-0.37228115263190831
F9.0602108443329818
tp495
sS'z'
F9.0602108443329818
sbsg14
(ielbow.chemistry.xyzClass
xyzClass
p496
(dp497
g12
I1
sg13
F57.295779513082323
sS'y'
F0.19285453894463578
sS'x'
F-1.0373078681467949
sg14
(F-1.0373078681467949
F0.19285453894463578
F3.8056155882626488
tp498
sS'z'
F3.8056155882626488
sbsg23
I6
sg24
S''
sg25
(lp499
sg27
S'C17'
p500
sg29
I01
sg30
S'R3Z'
p501
sg32
I01
sg33
S'   17'
p502
sg35
I2
sg36
I140376066749072
sg37
(lp503
g424
ag472
a(ielbow.chemistry.AtomClass
AtomClass
p504
(dp505
g7
F20
sg8
I140376066749360
sg9
(ielbow.chemistry.xyzClass
xyzClass
p506
(dp507
g12
I1
sg13
F57.295779513082323
sS'y'
F0.029999999999999999
sS'x'
F-3.2970000000000002
sg14
(F-3.2970000000000002
F0.029999999999999999
F-0.72899999999999998
tp508
sS'z'
F-0.72899999999999998
sbsg16
(ielbow.chemistry.xyzClass
xyzClass
p509
(dp510
g12
I1
sg13
F57.295779513082323
sS'y'
F1.0474936069880119
sS'x'
F-0.4180967837822186
sg14
(F-0.4180967837822186
F1.0474936069880119
F9.4858996933827111
tp511
sS'z'
F9.4858996933827111
sbsg14
(ielbow.chemistry.xyzClass
xyzClass
p512
(dp513
g12
I1
sg13
F57.295779513082323
sS'y'
F1.59711991162452
sS'x'
F-1.5167833930347923
sg14
(F-1.5167833930347923
F1.59711991162452
F4.0657947606505243
tp514
sS'z'
F4.0657947606505243
sbsg23
I6
sg24
S''
sg25
(lp515
sg27
S'C18'
p516
sg29
I00
sg30
S'R3Z'
p517
sg32
I01
sg33
S'   18'
p518
sg35
I2
sg36
I140376066749360
sg37
(lp519
g488
a(ielbow.chemistry.AtomClass
AtomClass
p520
(dp521
g7
F20
sg8
I140376066749648
sg9
(ielbow.chemistry.xyzClass
xyzClass
p522
(dp523
g12
I1
sg13
F57.295779513082323
sS'y'
F-0.32400000000000001
sS'x'
F-4.2649999999999997
sg14
(F-4.2649999999999997
F-0.32400000000000001
F-1.3779999999999999
tp524
sS'z'
F-1.3779999999999999
sbsg16
(ielbow.chemistry.xyzClass
xyzClass
p525
(dp526
g12
I0
sg13
F57.295779513082323
sS'y'
F1.2632190703362107
sS'x'
F-1.1090264799638874
sg14
(F-1.1090264799638874
F1.2632190703362107
F10.425099041150224
tp527
sS'z'
F10.425099041150224
sbsg14
(ielbow.chemistry.xyzClass
xyzClass
p528
(dp529
g12
I1
sg13
F57.295779513082323
sS'y'
F1.831706265141857
sS'x'
F-2.1657554031374673
sg14
(F-2.1657554031374673
F1.831706265141857
F5.0381375136620328
tp530
sS'z'
F5.0381375136620328
sbsg23
I8
sg24
S''
sg25
(lp531
sg27
S'O19'
p532
sg30
S'R3Z'
p533
sg133
g134
sg33
S'   19'
p534
sg36
I140376066749648
sg37
(lp535
g504
asg137
g369
sg138
I19
sg139
Nsg140
g522
sg141
F1
sg142
I0
sg143
I18
sg144
S'140376063730360_4'
p536
sg146
S'R3Z:1:A:'
p537
sg148
S'R3Z:1:A:???'
p538
sg150
(lp539
sg152
S'A'
sg153
S' O19'
p540
sg155
I18
sg156
S'O'
sg157
S'A'
sg158
S'   19'
p541
sg160
g540
sg161
I01
sg162
S'O'
sg164
g528
sg165
g540
sS'z'
F5.0381375136620328
sg166
g522
sg167
S''
sg168
I1
sg169
I19
sg170
S'O'
sg171
S' '
sg172
F15.9994
sS'y'
F1.831706265141857
sS'x'
F-2.1657554031374673
sg173
I0
sg174
I18
sba(ielbow.chemistry.AtomClass
AtomClass
p542
(dp543
g7
F20
sg8
I140376066749936
sg9
(ielbow.chemistry.xyzClass
xyzClass
p544
(dp545
g12
I1
sg13
F57.295779513082323
sS'y'
F1.319
sS'x'
F-2.9089999999999998
sg14
(F-2.9089999999999998
F1.319
F-0.73999999999999999
tp546
sS'z'
F-0.73999999999999999
sbsg16
(ielbow.chemistry.xyzClass
xyzClass
p547
(dp548
g12
I1
sg13
F57.295779513082323
sS'y'
F2.1478502511658624
sS'x'
F0.1627387081666487
sg14
(F0.1627387081666487
F2.1478502511658624
F8.7494192246579683
tp549
sS'z'
F8.7494192246579683
sbsg14
(ielbow.chemistry.xyzClass
xyzClass
p550
(dp551
g12
I1
sg13
F57.295779513082323
sS'y'
F2.687342188159656
sS'x'
F-1.1141727147428233
sg14
(F-1.1141727147428233
F2.687342188159656
F3.1769289071700495
tp552
sS'z'
F3.1769289071700495
sbsg23
I7
sg24
S''
sg25
(lp553
sg27
S'N20'
p554
sg29
I00
sg30
S'R3Z'
p555
sg32
I01
sg33
S'   20'
p556
sg35
I2
sg36
I140376066749936
sg37
(lp557
g504
a(ielbow.chemistry.AtomClass
AtomClass
p558
(dp559
g7
F20
sg8
I140376066750224
sg9
(ielbow.chemistry.xyzClass
xyzClass
p560
(dp561
g12
I1
sg13
F57.295779513082323
sS'y'
F1.722
sS'x'
F-1.8460000000000001
sg14
(F-1.8460000000000001
F1.722
F-0.024
tp562
sS'z'
F-0.024
sbsg16
(ielbow.chemistry.xyzClass
xyzClass
p563
(dp564
g12
I1
sg13
F57.295779513082323
sS'y'
F1.8734611444484144
sS'x'
F1.0194586679697575
sg14
(F1.0194586679697575
F1.8734611444484144
F7.5781259226592566
tp565
sS'z'
F7.5781259226592566
sbsg14
(ielbow.chemistry.xyzClass
xyzClass
p566
(dp567
g12
I1
sg13
F57.295779513082323
sS'y'
F2.4064971417391066
sS'x'
F-0.23112914957365494
sg14
(F-0.23112914957365494
F2.4064971417391066
F2.0284323002951705
tp568
sS'z'
F2.0284323002951705
sbsg23
I6
sg24
S''
sg25
(lp569
sg27
S'C21'
p570
sg29
I00
sg30
S'R3Z'
p571
sg32
I01
sg33
S'   21'
p572
sg35
I2
sg36
I140376066750224
sg37
(lp573
g408
ag542
a(ielbow.chemistry.AtomClass
AtomClass
p574
(dp575
g7
F20
sg8
I140376066750512
sg9
(ielbow.chemistry.xyzClass
xyzClass
p576
(dp577
g12
I1
sg13
F57.295779513082323
sS'y'
F2.895
sS'x'
F-1.5229999999999999
sg14
(F-1.5229999999999999
F2.895
F-0.051999999999999998
tp578
sS'z'
F-0.051999999999999998
sbsg16
(ielbow.chemistry.xyzClass
xyzClass
p579
(dp580
g12
I0
sg13
F57.295779513082323
sS'y'
F2.7680975093464473
sS'x'
F1.4981155280894454
sg14
(F1.4981155280894454
F2.7680975093464473
F6.9695514757650407
tp581
sS'z'
F6.9695514757650407
sbsg14
(ielbow.chemistry.xyzClass
xyzClass
p582
(dp583
g12
I1
sg13
F57.295779513082323
sS'y'
F3.3029956449161917
sS'x'
F0.11627031513454278
sg14
(F0.11627031513454278
F3.3029956449161917
F1.296448228965791
tp584
sS'z'
F1.296448228965791
sbsg23
I8
sg24
S''
sg25
(lp585
sg27
S'O22'
p586
sg30
S'R3Z'
p587
sg133
g134
sg33
S'   22'
p588
sg36
I140376066750512
sg37
(lp589
g558
asg137
g369
sg138
I22
sg139
Nsg140
g576
sg141
F1
sg142
I0
sg143
I21
sg144
S'140376063730360_4'
p590
sg146
S'R3Z:1:A:'
p591
sg148
S'R3Z:1:A:???'
p592
sg150
(lp593
sg152
S'A'
sg153
S' O22'
p594
sg155
I21
sg156
S'O'
sg157
S'A'
sg158
S'   22'
p595
sg160
g594
sg161
I01
sg162
S'O'
sg164
g582
sg165
g594
sS'z'
F1.296448228965791
sg166
g576
sg167
S''
sg168
I1
sg169
I22
sg170
S'O'
sg171
S' '
sg172
F15.9994
sS'y'
F3.3029956449161917
sS'x'
F0.11627031513454278
sg173
I0
sg174
I21
sbasg137
g175
sg138
I21
sg139
Nsg140
g560
sS'double_bond'
p596
I01
sg222
I01
sg142
I0
sg168
I1
sg143
I20
sg144
S'140376063730360_4'
p597
sg146
S'R3Z:1:A:'
p598
sg141
F1
sg150
(lp599
sg152
S'A'
sg153
S' C21'
p600
sg155
I20
sg133
g134
sg156
S'C'
sg157
S'A'
sg158
S'   21'
p601
sg160
g600
sg161
I01
sg162
S'CR6'
p602
sg164
g566
sg165
g600
sS'z'
F2.0284323002951705
sg166
g560
sg167
S''
sg184
I1
sg185
(lp603
(ielbow.chemistry.RingClass
empty
p604
(dp605
g138
I12
sg9
g410
sg184
I0
sg16
(ielbow.chemistry.xyzClass
xyzClass
p606
(dp607
g12
I0
sg13
F57.295779513082323
sS'y'
F-1.3856406460551023
sS'x'
F0.80000000000000082
sg14
(F0.80000000000000082
F-1.3856406460551023
F0
tp608
sS'z'
F0
sbsg156
S'N'
sg185
(lp609
(ielbow.chemistry.RingClass
empty
p610
(dp611
g138
I13
sg9
g426
sg184
I1
sg16
(ielbow.chemistry.xyzClass
xyzClass
p612
(dp613
g12
I0
sg13
F57.295779513082323
sS'y'
F-1.3856406460551023
sS'x'
F-0.80000000000000016
sg14
(F-0.80000000000000016
F-1.3856406460551023
F0
tp614
sS'z'
F0
sbsg156
S'C'
sg185
(lp615
(ielbow.chemistry.RingClass
empty
p616
(dp617
g138
I17
sg9
g490
sg184
I0
sg16
(ielbow.chemistry.xyzClass
xyzClass
p618
(dp619
g12
I0
sg13
F57.295779513082323
sS'y'
F-4.4408920985006262e-16
sS'x'
F-1.6000000000000005
sg14
(F-1.6000000000000005
F-4.4408920985006262e-16
F0
tp620
sS'z'
F0
sbsg156
S'C'
sg185
(lp621
(ielbow.chemistry.RingClass
empty
p622
(dp623
g138
I18
sg9
g506
sg184
I1
sg16
(ielbow.chemistry.xyzClass
xyzClass
p624
(dp625
g12
I0
sg13
F57.295779513082323
sS'y'
F1.3856406460551018
sS'x'
F-0.8000000000000006
sg14
(F-0.8000000000000006
F1.3856406460551018
F0
tp626
sS'z'
F0
sbsg156
S'C'
sg185
(lp627
(ielbow.chemistry.RingClass
empty
p628
(dp629
g138
I20
sg9
g544
sg184
I0
sg16
(ielbow.chemistry.xyzClass
xyzClass
p630
(dp631
g12
I0
sg13
F57.295779513082323
sS'y'
F1.3856406460551023
sS'x'
F0.79999999999999971
sg14
(F0.79999999999999971
F1.3856406460551023
F0
tp632
sS'z'
F0
sbsg156
S'N'
sg185
(lp633
(ielbow.chemistry.RingClass
empty
p634
(dp635
g138
I21
sg9
g560
sg184
I1
sg16
(ielbow.chemistry.xyzClass
xyzClass
p636
(dp637
g12
I0
sg13
F57.295779513082323
sS'y'
F4.4408920985006262e-16
sS'x'
F1.6000000000000005
sg14
(F1.6000000000000005
F4.4408920985006262e-16
F0
tp638
sS'z'
F0
sbsg156
S'C'
sg185
g603
sg222
I01
sg223
(lp639
I1
asg29
I00
sg14
(ielbow.chemistry.xyzClass
xyzClass
p640
(dp641
g12
I1
sg13
F57.295779513082323
sS'y'
F0.28097072193003381
sS'x'
F0.31726795324718382
sg14
(F0.31726795324718382
F0.28097072193003381
F3.2630953263438647
tp642
sS'z'
F3.2630953263438647
sbsg596
I01
sbag622
asg222
I01
sg223
(lp643
I1
asg29
I00
sg14
(ielbow.chemistry.xyzClass
xyzClass
p644
(dp645
g12
I1
sg13
F57.295779513082323
sS'y'
F0.31859299846595862
sS'x'
F-1.1689383849290345
sg14
(F-1.1689383849290345
F0.31859299846595862
F2.979394745098594
tp646
sS'z'
F2.979394745098594
sbsbag616
asg222
I01
sg223
(lp647
I1
asg29
I00
sg14
(ielbow.chemistry.xyzClass
xyzClass
p648
(dp649
g12
I1
sg13
F57.295779513082323
sS'y'
F-0.45818054930089236
sS'x'
F-1.4864334341883563
sg14
(F-1.4864334341883563
F-0.45818054930089236
F1.7976421353678098
tp650
sS'z'
F1.7976421353678098
sbsg596
I01
sbag610
a(ielbow.chemistry.RingClass
empty
p651
(dp652
g138
I16
sg9
g474
sg184
I0
sg16
(ielbow.chemistry.xyzClass
xyzClass
p653
(dp654
g12
I0
sg13
F57.295779513082323
sS'y'
F1.3610412933632641
sS'x'
F-2.2204460492503131e-16
sg14
(F-2.2204460492503131e-16
F1.3610412933632641
F0
tp655
sS'z'
F0
sbsg156
S'S'
sg185
(lp656
(ielbow.chemistry.RingClass
empty
p657
(dp658
g138
I17
sg9
g490
sg184
I1
sg16
(ielbow.chemistry.xyzClass
xyzClass
p659
(dp660
g12
I0
sg13
F57.295779513082323
sS'y'
F0.42058488969530705
sS'x'
F1.2944271909999159
sg14
(F1.2944271909999159
F0.42058488969530705
F0
tp661
sS'z'
F0
sbsg156
S'C'
sg185
(lp662
(ielbow.chemistry.RingClass
empty
p663
(dp664
g138
I13
sg9
g426
sg184
I0
sg16
(ielbow.chemistry.xyzClass
xyzClass
p665
(dp666
g12
I0
sg13
F57.295779513082323
sS'y'
F-1.1011055363769386
sS'x'
F0.80000000000000004
sg14
(F0.80000000000000004
F-1.1011055363769386
F0
tp667
sS'z'
F0
sbsg156
S'C'
sg185
(lp668
(ielbow.chemistry.RingClass
empty
p669
(dp670
g138
I14
sg9
g442
sg184
I0
sg16
(ielbow.chemistry.xyzClass
xyzClass
p671
(dp672
g12
I0
sg13
F57.295779513082323
sS'y'
F-1.1011055363769389
sS'x'
F-0.80000000000000004
sg14
(F-0.80000000000000004
F-1.1011055363769389
F0
tp673
sS'z'
F0
sbsg156
S'C'
sg185
(lp674
(ielbow.chemistry.RingClass
empty
p675
(dp676
g138
I15
sg9
g458
sg184
I1
sg16
(ielbow.chemistry.xyzClass
xyzClass
p677
(dp678
g12
I0
sg13
F57.295779513082323
sS'y'
F0.42058488969530683
sS'x'
F-1.2944271909999161
sg14
(F-1.2944271909999161
F0.42058488969530683
F0
tp679
sS'z'
F0
sbsg156
S'C'
sg185
(lp680
g651
ag669
asg177
S'Y'
sg222
I01
sg223
(lp681
I0
asg29
I00
sg14
(ielbow.chemistry.xyzClass
xyzClass
p682
(dp683
g12
I1
sg13
F57.295779513082323
sS'y'
F-0.20322585171672911
sS'x'
F0.45415477228352769
sg14
(F0.45415477228352769
F-0.20322585171672911
F-1.7024410913433226
tp684
sS'z'
F-1.7024410913433226
sbsbag663
asg177
S'Y'
sg222
I01
sg223
(lp685
I0
asg29
I00
sg14
(ielbow.chemistry.xyzClass
xyzClass
p686
(dp687
g12
I1
sg13
F57.295779513082323
sS'y'
F0.39810710439992403
sS'x'
F1.354357615150938
sg14
(F1.354357615150938
F0.39810710439992403
F-0.73360094270137233
tp688
sS'z'
F-0.73360094270137233
sbsbag657
ag604
asg177
S'Y'
sg222
I01
sg223
(lp689
I0
aI1
asg29
I01
sg14
(ielbow.chemistry.xyzClass
xyzClass
p690
(dp691
g12
I1
sg13
F57.295779513082323
sS'y'
F0.25536638899730585
sS'x'
F0.68008795882414463
sg14
(F0.68008795882414463
F0.25536638899730585
F0.73708800202733116
tp692
sS'z'
F0.73708800202733116
sbsbag651
ag622
asg177
S'Y'
sg222
I01
sg223
(lp693
I0
aI1
asg29
I01
sg14
(ielbow.chemistry.xyzClass
xyzClass
p694
(dp695
g12
I1
sg13
F57.295779513082323
sS'y'
F-0.40795139548951082
sS'x'
F-0.56637116312778057
sg14
(F-0.56637116312778057
F-0.40795139548951082
F0.60212053883680272
tp696
sS'z'
F0.60212053883680272
sbsbag675
asg177
S'Y'
sg222
I01
sg223
(lp697
I0
asg29
I00
sg14
(ielbow.chemistry.xyzClass
xyzClass
p698
(dp699
g12
I1
sg13
F57.295779513082323
sS'y'
F-0.7382713630076857
sS'x'
F-0.78828360778964124
sg14
(F-0.78828360778964124
F-0.7382713630076857
F-0.93169689454247229
tp700
sS'z'
F-0.93169689454247229
sbsbasg177
S'Y'
sg222
I01
sg223
(lp701
I1
aI0
asg29
I01
sg14
g694
sbag604
ag669
asg177
S'Y'
sg222
I01
sg223
(lp702
I1
aI0
asg29
I01
sg14
g690
sbag634
asg222
I01
sg223
(lp703
I1
asg29
I00
sg14
(ielbow.chemistry.xyzClass
xyzClass
p704
(dp705
g12
I1
sg13
F57.295779513082323
sS'y'
F0.70717695221379606
sS'x'
F1.0904414948326415
sg14
(F1.0904414948326415
F0.70717695221379606
F2.0739676008180221
tp706
sS'z'
F2.0739676008180221
sbsbag628
asg314
I1
sg170
S'C'
sg171
S' '
sg172
F12.010999999999999
sg148
S'R3Z:1:A:???'
p707
sg223
g639
sS'y'
F2.4064971417391066
sS'x'
F-0.23112914957365494
sg173
I0
sg169
I21
sg174
I20
sba(ielbow.chemistry.AtomClass
AtomClass
p708
(dp709
g7
F20
sg8
I140376066750800
sg9
(ielbow.chemistry.xyzClass
xyzClass
p710
(dp711
g12
I1
sg13
F57.295779513082323
sS'y'
F2.2610000000000001
sS'x'
F-3.6309999999999998
sg14
(F-3.6309999999999998
F2.2610000000000001
F-1.512
tp712
sS'z'
F-1.512
sbsg16
(ielbow.chemistry.xyzClass
xyzClass
p713
(dp714
g12
I1
sg13
F57.295779513082323
sS'y'
F3.4734634455603173
sS'x'
F-0.086154026599015443
sg14
(F-0.086154026599015443
F3.4734634455603173
F9.1474164329037269
tp715
sS'z'
F9.1474164329037269
sbsg14
(ielbow.chemistry.xyzClass
xyzClass
p716
(dp717
g12
I1
sg13
F57.295779513082323
sS'y'
F4.0027303272752999
sS'x'
F-1.5779921218868818
sg14
(F-1.5779921218868818
F4.0027303272752999
F3.4112018110565767
tp718
sS'z'
F3.4112018110565767
sbsg23
I8
sg24
S''
sg25
(lp719
sg27
S'O23'
p720
sg30
S'R3Z'
p721
sg133
g134
sg33
S'   23'
p722
sg36
I140376066750800
sg37
(lp723
g542
a(ielbow.chemistry.AtomClass
AtomClass
p724
(dp725
g9
(ielbow.chemistry.xyzClass
xyzClass
p726
(dp727
g12
I1
sg13
F57.295779513082323
sS'y'
F1.8839999999999999
sS'x'
F-4.3819999999999997
sg14
(F-4.3819999999999997
F1.8839999999999999
F-1.9910000000000001
tp728
sS'z'
F-1.9910000000000001
sbsg16
(ielbow.chemistry.xyzClass
xyzClass
p729
(dp730
g12
I0
sg13
F57.295779513082323
sS'y'
F3.7497687408749267
sS'x'
F0.58016739257849115
sg14
(F0.58016739257849115
F3.7497687408749267
F9.7546227420074629
tp731
sS'z'
F9.7546227420074629
sbsg14
(ielbow.chemistry.xyzClass
xyzClass
p732
(dp733
g12
I0
sg13
F57.295779513082323
sS'y'
F4.445550100230812
sS'x'
F-0.98601492675342228
sg14
(F-0.98601492675342228
F4.445550100230812
F3.9911214691301726
tp734
sS'z'
F3.9911214691301726
sbsg23
I1
sg25
(lp735
sg27
S'HO23'
p736
sg137
Nsg141
F1
sg142
I0
sg143
I34
sg146
S'R3Z:1:A:'
p737
sg148
S'R3Z:1:A:???'
p738
sg133
g134
sg155
I34
sg158
S'   35'
p739
sg160
S'HO23'
p740
sg162
S'HOH1'
p741
sg166
g726
sg165
g740
sg168
I1
sg169
I35
sg171
S' '
sS'x'
F-0.98601492675342228
sS'z'
F3.9911214691301726
sg174
I34
sg7
F20
sg8
I140376064477448
sg24
S''
sg30
S'R3Z'
p742
sg33
S'   35'
p743
sg36
I140376064477448
sg37
(lp744
g708
asg138
I35
sg139
Nsg140
g726
sg150
(lp745
sg152
S'A'
sg153
g740
sg156
S'H'
sg157
S'A'
sg164
g732
sg161
I01
sg167
S''
sg170
S'H'
sg172
F1.0079
sS'y'
F4.445550100230812
sg173
I0
sbasg137
g369
sg138
I23
sg139
Nsg140
g710
sg141
F1
sg142
I0
sg143
I22
sg144
S'140376063730360_4'
p746
sg146
S'R3Z:1:A:'
p747
sg148
S'R3Z:1:A:???'
p748
sg150
(lp749
sg152
S'A'
sg153
S' O23'
p750
sg155
I22
sg156
S'O'
sg157
S'A'
sg158
S'   23'
p751
sg160
g750
sg161
I01
sg162
S'OH1'
p752
sg164
g716
sg165
g750
sS'z'
F3.4112018110565767
sg166
g710
sg167
S''
sg168
I1
sg169
I23
sg170
S'O'
sg171
S' '
sg172
F15.9994
sS'y'
F4.0027303272752999
sS'x'
F-1.5779921218868818
sg173
I0
sg174
I22
sbasg137
(I1
I2
tp753
sg138
I20
sg139
Nsg140
g544
sg222
I01
sg142
I0
sg168
I1
sg143
I19
sg144
g590
sg146
S'R3Z:1:A:'
p754
sg141
F1
sg150
(lp755
sg152
S'A'
sg153
S' N20'
p756
sg155
I19
sg133
g134
sg156
S'N'
sg157
S'A'
sg158
S'   20'
p757
sg160
g756
sg161
I01
sg162
S'NR6'
p758
sg164
g550
sg165
g756
sS'z'
F3.1769289071700495
sg166
g544
sg167
S''
sg184
I0
sg185
g633
sg314
I1
sg170
S'N'
sg171
S' '
sg172
F14.0067
sg148
S'R3Z:1:A:???'
p759
sg223
g643
sS'y'
F2.687342188159656
sS'x'
F-1.1141727147428233
sg173
I0
sg169
I20
sg174
I19
sbasg137
g175
sg138
I18
sg139
Nsg140
g506
sg596
I01
sg222
I01
sg142
I0
sg168
I1
sg143
I17
sg144
g746
sg146
S'R3Z:1:A:'
p760
sg141
F1
sg150
(lp761
sg152
S'A'
sg153
S' C18'
p762
sg155
I17
sg133
g134
sg156
S'C'
sg157
S'A'
sg158
S'   18'
p763
sg160
g762
sg161
I01
sg162
g602
sg164
g512
sg165
g762
sS'z'
F4.0657947606505243
sg166
g506
sg167
S''
sg184
I1
sg185
g627
sg314
I1
sg170
S'C'
sg171
S' '
sg172
F12.010999999999999
sg148
S'R3Z:1:A:???'
p764
sg223
g647
sS'y'
F1.59711991162452
sS'x'
F-1.5167833930347923
sg173
I0
sg169
I18
sg174
I17
sbasg137
g175
sg138
I17
sg139
Nsg140
g490
sg177
I01
sg142
I0
sg168
I1
sg143
I16
sg144
g590
sg146
S'R3Z:1:A:'
p765
sg141
F1
sg150
(lp766
sg152
S'A'
sg153
S' C17'
p767
sg155
I16
sg133
g134
sg156
S'C'
sg157
S'A'
sg158
S'   17'
p768
sg160
g767
sg161
I01
sg162
S'CR56'
p769
sg164
g496
sg165
g767
sS'z'
F3.8056155882626488
sg166
g490
sg167
S''
sg184
I1
sg185
g662
sg222
I01
sg314
I1
sg170
S'C'
sg171
S' '
sg172
F12.010999999999999
sg148
S'R3Z:1:A:???'
p770
sg223
g693
sS'y'
F0.19285453894463578
sS'x'
F-1.0373078681467949
sg173
I0
sg169
I17
sg174
I16
sbasg137
(I2
tp771
sg138
I16
sg139
Nsg140
g474
sg177
I01
sg142
I0
sg168
I1
sg143
I15
sg144
g746
sg146
S'R3Z:1:A:'
p772
sg141
F1
sg150
(lp773
sg152
S'A'
sg153
S' S16'
p774
sg155
I15
sg133
g134
sg156
S'S'
sg157
S'A'
sg158
S'   16'
p775
sg160
g774
sg161
I01
sg162
S'S2'
p776
sg164
g480
sg165
g774
sS'z'
F4.5654560382223952
sg166
g474
sg167
S''
sg184
I0
sg185
g656
sg222
I01
sg314
I1
sg170
S'S'
sg171
S' '
sg172
F32.060000000000002
sg148
S'R3Z:1:A:???'
p777
sg223
g697
sS'y'
F-1.1667938471020056
sS'x'
F-1.2952052186993881
sg173
I0
sg169
I16
sg174
I15
sba(ielbow.chemistry.AtomClass
AtomClass
p778
(dp779
g7
F20
sg8
I140376064476872
sg9
(ielbow.chemistry.xyzClass
xyzClass
p780
(dp781
g12
I1
sg13
F57.295779513082323
sS'y'
F-3.6339999999999999
sS'x'
F-1.109
sg14
(F-1.109
F-3.6339999999999999
F1.798
tp782
sS'z'
F1.798
sbsg16
(ielbow.chemistry.xyzClass
xyzClass
p783
(dp784
g12
I0
sg13
F57.295779513082323
sS'y'
F-3.9302816367393008
sS'x'
F-0.095397634886838445
sg14
(F-0.095397634886838445
F-3.9302816367393008
F8.9283185085743764
tp785
sS'z'
F8.9283185085743764
sbsg14
(ielbow.chemistry.xyzClass
xyzClass
p786
(dp787
g12
I0
sg13
F57.295779513082323
sS'y'
F-3.3658225237722941
sS'x'
F-0.59005788422655092
sg14
(F-0.59005788422655092
F-3.3658225237722941
F4.0044108065194557
tp788
sS'z'
F4.0044108065194557
sbsg23
I1
sg24
S''
sg25
(lp789
sg27
S'H15'
p790
sg30
S'R3Z'
p791
sg133
g134
sg33
S'   34'
p792
sg36
I140376064476872
sg37
(lp793
g456
asg137
Nsg138
I34
sg139
Nsg140
g780
sg141
F1
sg142
I0
sg143
I33
sg144
S'140376063730360_4'
p794
sg146
S'R3Z:1:A:'
p795
sg148
S'R3Z:1:A:???'
p796
sg150
(lp797
sg152
S'A'
sg153
S' H15'
p798
sg155
I33
sg156
S'H'
sg157
S'A'
sg158
S'   34'
p799
sg160
g798
sg161
I01
sg162
S'HCR5'
p800
sg164
g786
sg165
g798
sS'z'
F4.0044108065194557
sg166
g780
sg167
S''
sg168
I1
sg169
I34
sg170
S'H'
sg171
S' '
sg172
F1.0079
sS'y'
F-3.3658225237722941
sS'x'
F-0.59005788422655092
sg173
I0
sg174
I33
sbasg137
g175
sg138
I15
sg139
Nsg140
g458
sg177
I01
sg142
I0
sg168
I1
sg143
I14
sg144
g746
sg146
S'R3Z:1:A:'
p801
sg141
F1
sg150
(lp802
sg152
S'A'
sg153
S' C15'
p803
sg155
I14
sg133
g134
sg156
S'C'
sg157
S'A'
sg158
S'   15'
p804
sg160
g803
sg161
I01
sg162
S'CR15'
p805
sg164
g464
sg165
g803
sS'z'
F3.8051421729879209
sg166
g458
sg167
S''
sg184
I1
sg185
g680
sg222
I01
sg314
I1
sg170
S'C'
sg171
S' '
sg172
F12.010999999999999
sg148
S'R3Z:1:A:???'
p806
sg223
g681
sS'y'
F-2.2851918509104774
sS'x'
F-0.52195845556579068
sg173
I0
sg169
I15
sg174
I14
sba(ielbow.chemistry.AtomClass
AtomClass
p807
(dp808
g7
F20
sg8
I140376064476224
sg9
(ielbow.chemistry.xyzClass
xyzClass
p809
(dp810
g12
I1
sg13
F57.295779513082323
sS'y'
F-1.389
sS'x'
F-0.012999999999999999
sg14
(F-0.012999999999999999
F-1.389
F2.0960000000000001
tp811
sS'z'
F2.0960000000000001
sbsg16
(ielbow.chemistry.xyzClass
xyzClass
p812
(dp813
g12
I0
sg13
F57.295779513082323
sS'y'
F-2.7391758798228123
sS'x'
F1.335350618355009
sg14
(F1.335350618355009
F-2.7391758798228123
F6.946834292372456
tp814
sS'z'
F6.946834292372456
sbsg14
(ielbow.chemistry.xyzClass
xyzClass
p815
(dp816
g12
I0
sg13
F57.295779513082323
sS'y'
F-2.1831105193514757
sS'x'
F0.77333975122172705
sg14
(F0.77333975122172705
F-2.1831105193514757
F1.9542660509547511
tp817
sS'z'
F1.9542660509547511
sbsg23
I1
sg24
S''
sg25
(lp818
sg27
S'H14'
p819
sg30
S'R3Z'
p820
sg133
g134
sg33
S'   33'
p821
sg36
I140376064476224
sg37
(lp822
g440
asg137
Nsg138
I33
sg139
Nsg140
g809
sg141
F1
sg142
I0
sg143
I32
sg144
g746
sg146
S'R3Z:1:A:'
p823
sg148
S'R3Z:1:A:???'
p824
sg150
(lp825
sg152
S'A'
sg153
S' H14'
p826
sg155
I32
sg156
S'H'
sg157
S'A'
sg158
S'   33'
p827
sg160
g826
sg161
I01
sg162
g800
sg164
g815
sg165
g826
sS'z'
F1.9542660509547511
sg166
g809
sg167
S''
sg168
I1
sg169
I33
sg170
S'H'
sg171
S' '
sg172
F1.0079
sS'y'
F-2.1831105193514757
sS'x'
F0.77333975122172705
sg173
I0
sg174
I32
sbasg137
g175
sg138
I14
sg139
Nsg140
g442
sg177
I01
sg142
I0
sg168
I1
sg143
I13
sg144
g590
sg146
S'R3Z:1:A:'
p828
sg141
F1
sg150
(lp829
sg152
S'A'
sg153
S' C14'
p830
sg155
I13
sg133
g134
sg156
S'C'
sg157
S'A'
sg158
S'   14'
p831
sg160
g830
sg161
I01
sg162
g805
sg164
g448
sg165
g830
sS'z'
F2.674504685148186
sg166
g442
sg167
S''
sg184
I0
sg185
g674
sg222
I01
sg314
I1
sg170
S'C'
sg171
S' '
sg172
F12.010999999999999
sg148
S'R3Z:1:A:???'
p832
sg223
g685
sS'y'
F-1.669941863071184
sS'x'
F0.15447000876881378
sg173
I0
sg169
I14
sg174
I13
sbag488
asg137
g175
sg138
I13
sg139
Nsg140
g426
sg177
I01
sg142
I0
sg168
I1
sg143
I12
sg144
g597
sg146
S'R3Z:1:A:'
p833
sg141
F1
sg150
(lp834
sg152
S'A'
sg153
S' C13'
p835
sg155
I12
sg133
g134
sg156
S'C'
sg157
S'A'
sg158
S'   13'
p836
sg160
g835
sg161
I01
sg162
g769
sg164
g432
sg165
g835
sS'z'
F2.6817188745486344
sg166
g426
sg167
S''
sg184
I0
sg185
g668
sg222
I01
sg314
I1
sg170
S'C'
sg171
S' '
sg172
F12.010999999999999
sg148
S'R3Z:1:A:???'
p837
sg223
g689
sS'y'
F-0.083222050693002592
sS'x'
F-0.18038820127620814
sg173
I0
sg169
I13
sg174
I12
sbag558
asg137
g753
sg138
I12
sg139
Nsg140
g410
sg222
I01
sg142
I0
sg168
I1
sg143
I11
sg144
S'140376063730360_4'
p838
sg146
S'R3Z:1:A:'
p839
sg141
F1
sg150
(lp840
sg152
S'A'
sg153
S' N12'
p841
sg155
I11
sg133
g134
sg156
S'N'
sg157
S'A'
sg158
S'   12'
p842
sg160
g841
sg161
I01
sg162
g758
sg164
g416
sg165
g841
sS'z'
F1.7777267229285778
sg166
g410
sg167
S''
sg184
I0
sg185
g609
sg314
I1
sg170
S'N'
sg171
S' '
sg172
F14.0067
sg148
S'R3Z:1:A:???'
p843
sg223
g703
sS'y'
F1.0129295015863706
sS'x'
F0.23433898025667155
sg173
I0
sg169
I12
sg174
I11
sba(ielbow.chemistry.AtomClass
AtomClass
p844
(dp845
g7
F20
sg8
I140376064475648
sg9
(ielbow.chemistry.xyzClass
xyzClass
p846
(dp847
g12
I1
sg13
F57.295779513082323
sS'y'
F0.74199999999999999
sS'x'
F0.153
sg14
(F0.153
F0.74199999999999999
F2.3740000000000001
tp848
sS'z'
F2.3740000000000001
sbsg16
(ielbow.chemistry.xyzClass
xyzClass
p849
(dp850
g12
I1
sg13
F57.295779513082323
sS'y'
F1.0991150894536388
sS'x'
F2.7274824283335919
sg14
(F2.7274824283335919
F1.0991150894536388
F5.7999705885162269
tp851
sS'z'
F5.7999705885162269
sbsg14
(ielbow.chemistry.xyzClass
xyzClass
p852
(dp853
g12
I0
sg13
F57.295779513082323
sS'y'
F1.6468101531045172
sS'x'
F1.7004977981781275
sg14
(F1.7004977981781275
F1.6468101531045172
F0.43034193960231004
tp854
sS'z'
F0.43034193960231004
sbsg23
I1
sg24
S''
sg25
(lp855
sg27
S'H11'
p856
sg30
S'R3Z'
p857
sg133
g134
sg33
S'   31'
p858
sg36
I140376064475648
sg37
(lp859
g392
asg137
Nsg138
I31
sg139
Nsg140
g846
sg141
F1
sg142
I0
sg143
I30
sg144
g838
sg146
S'R3Z:1:A:'
p860
sg148
S'R3Z:1:A:???'
p861
sg150
(lp862
sg152
S'A'
sg153
S' H11'
p863
sg155
I30
sg156
S'H'
sg157
S'A'
sg158
S'   31'
p864
sg160
g863
sg161
I01
sg162
S'HCH2'
p865
sg164
g852
sg165
g863
sS'z'
F0.43034193960231004
sg166
g846
sg167
S''
sg168
I1
sg169
I31
sg170
S'H'
sg171
S' '
sg172
F1.0079
sS'y'
F1.6468101531045172
sS'x'
F1.7004977981781275
sg173
I0
sg174
I30
sba(ielbow.chemistry.AtomClass
AtomClass
p866
(dp867
g7
F20
sg8
I140376064475936
sg9
(ielbow.chemistry.xyzClass
xyzClass
p868
(dp869
g12
I1
sg13
F57.295779513082323
sS'y'
F2.3879999999999999
sS'x'
F-0.13700000000000001
sg14
(F-0.13700000000000001
F2.3879999999999999
F1.7629999999999999
tp870
sS'z'
F1.7629999999999999
sbsg16
(ielbow.chemistry.xyzClass
xyzClass
p871
(dp872
g12
I1
sg13
F57.295779513082323
sS'y'
F-0.56939044631661562
sS'x'
F2.8995860673501497
sg14
(F2.8995860673501497
F-0.56939044631661562
F6.3617926099958773
tp873
sS'z'
F6.3617926099958773
sbsg14
(ielbow.chemistry.xyzClass
xyzClass
p874
(dp875
g12
I0
sg13
F57.295779513082323
sS'y'
F-0.046537968668903806
sS'x'
F1.8397684482446919
sg14
(F1.8397684482446919
F-0.046537968668903806
F0.96510143058182063
tp876
sS'z'
F0.96510143058182063
sbsg23
I1
sg24
S''
sg25
(lp877
sg27
S'H11A'
p878
sg30
S'R3Z'
p879
sg133
g134
sg33
S'   32'
p880
sg36
I140376064475936
sg37
(lp881
g392
asg137
Nsg138
I32
sg139
Nsg140
g868
sg141
F1
sg142
I0
sg143
I31
sg144
g838
sg146
S'R3Z:1:A:'
p882
sg148
S'R3Z:1:A:???'
p883
sg150
(lp884
sg152
S'A'
sg153
S'H11A'
p885
sg155
I31
sg156
S'H'
sg157
S'A'
sg158
S'   32'
p886
sg160
g885
sg161
I01
sg162
g865
sg164
g874
sg165
g885
sS'z'
F0.96510143058182063
sg166
g868
sg167
S''
sg168
I1
sg169
I32
sg170
S'H'
sg171
S' '
sg172
F1.0079
sS'y'
F-0.046537968668903806
sS'x'
F1.8397684482446919
sg173
I0
sg174
I31
sbasg137
g175
sg138
I11
sg139
Nsg140
g394
sg370
I1
sg141
F1
sg142
I0
sg143
I10
sg144
S'140376063730360_4'
p887
sg146
S'R3Z:1:A:'
p888
sg148
S'R3Z:1:A:???'
p889
sg150
(lp890
sg375
(ielbow.chemistry.xyzClass
xyzClass
p891
(dp892
g12
I1
sg13
F57.295779513082323
sS'y'
F-1.0364929405873307
sS'x'
F1.8499979610004837
sg14
(F1.8499979610004837
F-1.0364929405873307
F-0.53103944045775286
tp893
sS'z'
F-0.53103944045775286
sbsg152
S'A'
sg153
S' C11'
p894
sg155
I10
sg156
S'C'
sg157
S'A'
sg158
S'   11'
p895
sg160
g894
sg161
I01
sg162
S'CH2'
p896
sg164
g400
sg165
g894
sS'z'
F0.67494295302001461
sg166
g394
sg167
S''
sg168
I1
sg169
I11
sg170
S'C'
sg171
S' '
sg172
F12.010999999999999
sS'y'
F0.74041198984905376
sS'x'
F1.1438739069413062
sg173
I0
sg382
g1
(g383
g3
(lp897
I6
a(lp898
I7
aI1
aI1
aa(lp899
I6
aI6
aa(lp900
I8
aI8
aI7
aI6
aI6
aa(lp901
I6
aI1
aI16
aI6
aI8
aa(lp902
I8
aI8
aa(lp903
I1
aatRp904
sg174
I10
sba(ielbow.chemistry.AtomClass
AtomClass
p905
(dp906
g7
F20
sg8
I140376064475360
sg9
(ielbow.chemistry.xyzClass
xyzClass
p907
(dp908
g12
I1
sg13
F57.295779513082323
sS'y'
F1.8480000000000001
sS'x'
F1.159
sg14
(F1.159
F1.8480000000000001
F-0.28999999999999998
tp909
sS'z'
F-0.28999999999999998
sbsg16
(ielbow.chemistry.xyzClass
xyzClass
p910
(dp911
g12
I1
sg13
F57.295779513082323
sS'y'
F-1.3746881138226783
sS'x'
F1.2076169298164947
sg14
(F1.2076169298164947
F-1.3746881138226783
F4.9117461374822282
tp912
sS'z'
F4.9117461374822282
sbsg14
(ielbow.chemistry.xyzClass
xyzClass
p913
(dp914
g12
I0
sg13
F57.295779513082323
sS'y'
F0.086317076035657636
sS'x'
F-0.72268243595718373
sg14
(F-0.72268243595718373
F0.086317076035657636
F-0.28283093929790937
tp915
sS'z'
F-0.28283093929790937
sbsg23
I1
sg24
S''
sg25
(lp916
sg27
S'H9'
p917
sg30
S'R3Z'
p918
sg133
g134
sg33
S'   30'
p919
sg36
I140376064475360
sg37
(lp920
g342
asg137
Nsg138
I30
sg139
Nsg140
g907
sg370
I0
sg141
F1
sg142
I0
sg143
I29
sg144
S'140376063730360_0'
p921
sg146
S'R3Z:1:A:'
p922
sg148
S'R3Z:1:A:???'
p923
sg150
(lp924
sg375
(ielbow.chemistry.xyzClass
xyzClass
p925
(dp926
g12
I1
sg13
F57.295779513082323
sS'y'
F1.0977566368088647
sS'x'
F2.0061757966330021
sg14
(F2.0061757966330021
F1.0977566368088647
F-0.7533271925282935
tp927
sS'z'
F-0.7533271925282935
sbsg152
S'A'
sg153
S' H9 '
p928
sg155
I29
sg156
S'H'
sg157
S'A'
sg158
S'   30'
p929
sg160
g928
sg161
I01
sg162
S'HCH1'
p930
sg164
g913
sg165
g928
sS'z'
F-0.28283093929790937
sg166
g907
sg167
S''
sg168
I1
sg169
I30
sg170
S'H'
sg171
S' '
sg172
F1.0079
sS'y'
F0.086317076035657636
sS'x'
F-0.72268243595718373
sg173
I0
sg382
g1
(g383
g3
(lp931
I1
a(lp932
a(lp933
a(lp934
a(lp935
a(lp936
a(lp937
atRp938
sg174
I29
sbasg137
g175
sg138
I9
sg139
Nsg140
g248
sg148
S'R3Z:1:A:???'
p939
sg222
I01
sg142
I0
sg168
I1
sg143
I8
sg146
S'R3Z:1:A:'
p940
sg141
F1
sg150
(lp941
sg375
(ielbow.chemistry.xyzClass
xyzClass
p942
(dp943
g12
I1
sg13
F57.295779513082323
sS'y'
F-0.14525265393210982
sS'x'
F1.4924748490056412
sg14
(F1.4924748490056412
F-0.14525265393210982
F-0.023676042878640776
tp944
sS'z'
F-0.023676042878640776
sbsg152
S'A'
sg153
S' C9 '
p945
sg155
I8
sg133
g134
sg156
S'C'
sg157
S'A'
sg158
S'    9'
p946
sg160
g945
sg161
I01
sg162
S'CH1'
p947
sg164
g347
sg165
g945
sS'z'
F-0.58307338769168204
sg166
g248
sg167
S'S'
sg184
I0
sg185
g254
sg314
I2
sg170
S'C'
sg171
S' '
sg172
F12.010999999999999
sg315
I10
sg223
g288
sS'y'
F0.2747525058759509
sS'x'
F0.32104386787398553
sg173
I0
sg382
g1
(g383
g3
(ltRp948
sg169
I9
sg174
I8
sba(ielbow.chemistry.AtomClass
AtomClass
p949
(dp950
g7
F20
sg8
I140376066752240
sg9
(ielbow.chemistry.xyzClass
xyzClass
p951
(dp952
g12
I1
sg13
F57.295779513082323
sS'y'
F1.1559999999999999
sS'x'
F2.6269999999999998
sg14
(F2.6269999999999998
F1.1559999999999999
F2.3039999999999998
tp953
sS'z'
F2.3039999999999998
sbsg16
(ielbow.chemistry.xyzClass
xyzClass
p954
(dp955
g12
I0
sg13
F57.295779513082323
sS'y'
F1.4694885007941472
sS'x'
F0.19186418832404806
sg14
(F0.19186418832404806
F1.4694885007941472
F4.8496051799633051
tp956
sS'z'
F4.8496051799633051
sbsg14
(ielbow.chemistry.xyzClass
xyzClass
p957
(dp958
g12
I0
sg13
F57.295779513082323
sS'y'
F1.674264424664317
sS'x'
F1.3761225931455079
sg14
(F1.3761225931455079
F1.674264424664317
F-1.8238458167104996
tp959
sS'z'
F-1.8238458167104996
sbsg23
I1
sg24
S''
sg25
(lp960
sg27
S'H8'
p961
sg30
S'R3Z'
p962
sg133
g134
sg33
S'   28'
p963
sg36
I140376066752240
sg37
(lp964
g329
asg137
Nsg138
I28
sg139
Nsg140
g951
sg141
F1
sg142
I0
sg143
I27
sg144
S'140376063730360_3'
p965
sg146
S'R3Z:1:A:'
p966
sg148
S'R3Z:1:A:???'
p967
sg150
(lp968
sg152
S'A'
sg153
S' H8 '
p969
sg155
I27
sg156
S'H'
sg157
S'A'
sg158
S'   28'
p970
sg160
g969
sg161
I01
sg162
g865
sg164
g957
sg165
g969
sS'z'
F-1.8238458167104996
sg166
g951
sg167
S''
sg168
I1
sg169
I28
sg170
S'H'
sg171
S' '
sg172
F1.0079
sS'y'
F1.674264424664317
sS'x'
F1.3761225931455079
sg173
I0
sg174
I27
sba(ielbow.chemistry.AtomClass
AtomClass
p971
(dp972
g7
F20
sg8
I140376064475216
sg9
(ielbow.chemistry.xyzClass
xyzClass
p973
(dp974
g12
I1
sg13
F57.295779513082323
sS'y'
F2.802
sS'x'
F2.3479999999999999
sg14
(F2.3479999999999999
F2.802
F1.6779999999999999
tp975
sS'z'
F1.6779999999999999
sbsg16
(ielbow.chemistry.xyzClass
xyzClass
p976
(dp977
g12
I0
sg13
F57.295779513082323
sS'y'
F0.091206819231786029
sS'x'
F-0.54138919943966035
sg14
(F-0.54138919943966035
F0.091206819231786029
F5.6734430224496686
tp978
sS'z'
F5.6734430224496686
sbsg14
(ielbow.chemistry.xyzClass
xyzClass
p979
(dp980
g12
I0
sg13
F57.295779513082323
sS'y'
F2.2590453632927394
sS'x'
F-0.19420410433018809
sg14
(F-0.19420410433018809
F2.2590453632927394
F-1.2232683233490294
tp981
sS'z'
F-1.2232683233490294
sbsg23
I1
sg24
S''
sg25
(lp982
sg27
S'H8A'
p983
sg30
S'R3Z'
p984
sg133
g134
sg33
S'   29'
p985
sg36
I140376064475216
sg37
(lp986
g329
asg137
Nsg138
I29
sg139
Nsg140
g973
sg141
F1
sg142
I0
sg143
I28
sg144
g965
sg146
S'R3Z:1:A:'
p987
sg148
S'R3Z:1:A:???'
p988
sg150
(lp989
sg152
S'A'
sg153
S' H8A'
p990
sg155
I28
sg156
S'H'
sg157
S'A'
sg158
S'   29'
p991
sg160
g990
sg161
I01
sg162
g865
sg164
g979
sg165
g990
sS'z'
F-1.2232683233490294
sg166
g973
sg167
S''
sg168
I1
sg169
I29
sg170
S'H'
sg171
S' '
sg172
F1.0079
sS'y'
F2.2590453632927394
sS'x'
F-0.19420410433018809
sg173
I0
sg174
I28
sbasg137
g175
sg138
I8
sg139
Nsg140
g239
sg370
I2
sg148
S'R3Z:1:A:???'
p992
sg222
I01
sg142
I0
sg168
I1
sg143
I7
sg144
g145
sg146
S'R3Z:1:A:'
p993
sg141
F1
sg150
(lp994
sg375
(ielbow.chemistry.xyzClass
xyzClass
p995
(dp996
g12
I1
sg13
F57.295779513082323
sS'y'
F-0.13963621205121649
sS'x'
F0.091297591404106121
sg14
(F0.091297591404106121
F-0.13963621205121649
F-0.021104305390730441
tp997
sS'z'
F-0.021104305390730441
sbsg152
S'A'
sg153
S' C8 '
p998
sg155
I7
sg133
g134
sg156
S'C'
sg157
S'A'
sg158
S'    8'
p999
sg160
g998
sg161
I01
sg162
g896
sg164
g334
sg165
g998
sS'z'
F-1.6265577759951526
sg166
g239
sg167
S''
sg184
I1
sg185
g245
sg314
I2
sg170
S'C'
sg171
S' '
sg172
F12.010999999999999
sg315
I9
sg223
g292
sS'y'
F1.3949946323769193
sS'x'
F0.33842260640729283
sg173
I0
sg382
g1
(g383
g3
(lp1000
I6
a(lp1001
I8
aI1
aI1
aa(lp1002
I6
aa(lp1003
I6
aI6
aa(lp1004
a(lp1005
I6
aI1
aa(lp1006
I8
aI6
aI6
aI1
aatRp1007
sg169
I8
sg174
I7
sbasg137
g369
sg138
I7
sg139
Nsg140
g230
sg148
S'R3Z:1:A:???'
p1008
sg222
I01
sg142
I0
sg168
I1
sg143
I6
sg144
g178
sg146
S'R3Z:1:A:'
p1009
sg141
F1
sg150
(lp1010
sg152
S'A'
sg153
S' O7 '
p1011
sg155
I6
sg133
g134
sg156
S'O'
sg157
S'A'
sg158
S'    7'
p1012
sg160
g1011
sg161
I01
sg162
g381
sg164
g321
sg165
g1011
sS'z'
F-2.8009502455579929
sg166
g230
sg167
S''
sg184
I0
sg185
g236
sg314
I2
sg170
S'O'
sg171
S' '
sg172
F15.9994
sg315
I7
sg223
g296
sS'y'
F1.0281874947354996
sS'x'
F-0.2449432605644426
sg173
I0
sg169
I7
sg174
I6
sbasg137
g175
sg138
I5
sg139
Nsg140
g89
sg148
S'R3Z:1:A:???'
p1013
sg177
I01
sg142
I0
sg168
I1
sg143
I4
sg144
S'140376063730360_3'
p1014
sg146
S'R3Z:1:A:'
p1015
sg141
F1
sg150
(lp1016
sg152
S'A'
sg153
S' C5 '
p1017
sg155
I4
sg133
g134
sg156
S'C'
sg157
S'A'
sg158
S'    5'
p1018
sg160
g1017
sg161
I01
sg162
g602
sg164
g95
sg165
g1017
sS'z'
F-3.285587147149422
sg166
g89
sg167
S''
sg184
I0
sg185
g216
sg222
I01
sg314
I2
sg170
S'C'
sg171
S' '
sg172
F12.010999999999999
sg315
I5
sg223
g300
sS'y'
F-0.33118009996741793
sS'x'
F-0.037080610172904205
sg173
I0
sg169
I5
sg174
I4
sbag356
asg137
g175
sg138
I4
sg139
Nsg140
g73
sg148
S'R3Z:1:A:???'
p1019
sg177
I01
sg142
I0
sg168
I1
sg143
I3
sg144
S'140376063730360_3'
p1020
sg146
S'R3Z:1:A:'
p1021
sg141
F1
sg150
(lp1022
sg152
S'A'
sg153
S' C4 '
p1023
sg155
I3
sg133
g134
sg156
S'C'
sg157
S'A'
sg158
S'    4'
p1024
sg160
g1023
sg161
I01
sg162
g602
sg164
g79
sg165
g1023
sS'z'
F-2.4264016249288334
sg166
g73
sg167
S''
sg184
I1
sg185
g210
sg222
I01
sg314
I2
sg170
S'C'
sg171
S' '
sg172
F12.010999999999999
sg315
I4
sg223
g301
sS'y'
F-1.2710080550603382
sS'x'
F0.60593559545755338
sg173
I0
sg169
I4
sg174
I3
sba(ielbow.chemistry.AtomClass
AtomClass
p1025
(dp1026
g7
F20
sg8
I140376066751664
sg9
(ielbow.chemistry.xyzClass
xyzClass
p1027
(dp1028
g12
I1
sg13
F57.295779513082323
sS'y'
F-2.2850000000000001
sS'x'
F2.0990000000000002
sg14
(F2.0990000000000002
F-2.2850000000000001
F-1.0680000000000001
tp1029
sS'z'
F-1.0680000000000001
sbsg16
(ielbow.chemistry.xyzClass
xyzClass
p1030
(dp1031
g12
I0
sg13
F57.295779513082323
sS'y'
F-1.1490028348315138e-16
sS'x'
F3.1961263281403212
sg14
(F3.1961263281403212
F-1.1490028348315138e-16
F1.2103531779013394
tp1032
sS'z'
F1.2103531779013394
sbsg14
(ielbow.chemistry.xyzClass
xyzClass
p1033
(dp1034
g12
I0
sg13
F57.295779513082323
sS'y'
F-3.2493991519090981
sS'x'
F1.459349844360891
sg14
(F1.459349844360891
F-3.2493991519090981
F-2.2665254561885275
tp1035
sS'z'
F-2.2665254561885275
sbsg23
I1
sg24
S''
sg25
(lp1036
sg27
S'H3'
p1037
sg30
S'R3Z'
p1038
sg133
g134
sg33
S'   26'
p1039
sg36
I140376066751664
sg37
(lp1040
g55
asg137
Nsg138
I26
sg139
Nsg140
g1027
sg141
F1
sg142
I0
sg143
I25
sg144
g178
sg146
S'R3Z:1:A:'
p1041
sg148
S'R3Z:1:A:???'
p1042
sg150
(lp1043
sg152
S'A'
sg153
S' H3 '
p1044
sg155
I25
sg156
S'H'
sg157
S'A'
sg158
S'   26'
p1045
sg160
g1044
sg161
I01
sg162
g163
sg164
g1033
sg165
g1044
sS'z'
F-2.2665254561885275
sg166
g1027
sg167
S''
sg168
I1
sg169
I26
sg170
S'H'
sg171
S' '
sg172
F1.0079
sS'y'
F-3.2493991519090981
sS'x'
F1.459349844360891
sg173
I0
sg174
I25
sbasg137
g175
sg138
I3
sg139
Nsg140
g57
sg148
S'R3Z:1:A:???'
p1046
sg177
I01
sg142
I0
sg168
I1
sg143
I2
sg144
g1014
sg146
S'R3Z:1:A:'
p1047
sg141
F1
sg150
(lp1048
sg152
S'A'
sg153
S' C3 '
p1049
sg155
I2
sg133
g134
sg156
S'C'
sg157
S'A'
sg158
S'    3'
p1050
sg160
g1049
sg161
I01
sg162
g183
sg164
g63
sg165
g1049
sS'z'
F-2.9185607546155352
sg166
g57
sg167
S''
sg184
I0
sg185
g204
sg222
I01
sg314
I2
sg170
S'C'
sg171
S' '
sg172
F12.010999999999999
sg315
I3
sg223
g302
sS'y'
F-2.5349498573163767
sS'x'
F0.97144801997219021
sg173
I0
sg169
I3
sg174
I2
sba(ielbow.chemistry.AtomClass
AtomClass
p1051
(dp1052
g7
F20
sg8
I140376066751376
sg9
(ielbow.chemistry.xyzClass
xyzClass
p1053
(dp1054
g12
I1
sg13
F57.295779513082323
sS'y'
F-2.8530000000000002
sS'x'
F4.3090000000000002
sg14
(F4.3090000000000002
F-2.8530000000000002
F-1.99
tp1055
sS'z'
F-1.99
sbsg16
(ielbow.chemistry.xyzClass
xyzClass
p1056
(dp1057
g12
I0
sg13
F57.295779513082323
sS'y'
F-1.149268362471746e-16
sS'x'
F1.952848103944292
sg14
(F1.952848103944292
F-1.149268362471746e-16
F-0.93844883542904889
tp1058
sS'z'
F-0.93844883542904889
sbsg14
(ielbow.chemistry.xyzClass
xyzClass
p1059
(dp1060
g12
I0
sg13
F57.295779513082323
sS'y'
F-3.8639732521111863
sS'x'
F0.99229616671908261
sg14
(F0.99229616671908261
F-3.8639732521111863
F-4.6399644293466276
tp1061
sS'z'
F-4.6399644293466276
sbsg23
I1
sg24
S''
sg25
(lp1062
sg27
S'H2'
p1063
sg30
S'R3Z'
p1064
sg133
g134
sg33
S'   25'
p1065
sg36
I140376066751376
sg37
(lp1066
g39
asg137
Nsg138
I25
sg139
Nsg140
g1053
sg141
F1
sg142
I0
sg143
I24
sg144
S'140376063730360_3'
p1067
sg146
S'R3Z:1:A:'
p1068
sg148
S'R3Z:1:A:???'
p1069
sg150
(lp1070
sg152
S'A'
sg153
S' H2 '
p1071
sg155
I24
sg156
S'H'
sg157
S'A'
sg158
S'   25'
p1072
sg160
g1071
sg161
I01
sg162
g163
sg164
g1059
sg165
g1071
sS'z'
F-4.6399644293466276
sg166
g1053
sg167
S''
sg168
I1
sg169
I25
sg170
S'H'
sg171
S' '
sg172
F1.0079
sS'y'
F-3.8639732521111863
sS'x'
F0.99229616671908261
sg173
I0
sg174
I24
sbasg137
g175
sg138
I2
sg139
Nsg140
g41
sg148
S'R3Z:1:A:???'
p1073
sg177
I01
sg142
I0
sg168
I1
sg143
I1
sg144
g178
sg146
S'R3Z:1:A:'
p1074
sg141
F1
sg150
(lp1075
sg152
S'A'
sg153
S' C2 '
p1076
sg155
I1
sg133
g134
sg156
S'C'
sg157
S'A'
sg158
S'    2'
p1077
sg160
g1076
sg161
I01
sg162
g183
sg164
g47
sg165
g1076
sS'z'
F-4.2542692162822364
sg166
g41
sg167
S''
sg184
I1
sg185
g198
sg222
I01
sg314
I2
sg170
S'C'
sg171
S' '
sg172
F12.010999999999999
sg315
I2
sg223
g306
sS'y'
F-2.8726344907992667
sS'x'
F0.70434747854083835
sg173
I0
sg169
I2
sg174
I1
sbag103
a(ielbow.chemistry.AtomClass
AtomClass
p1078
(dp1079
g7
F20
sg8
I140376066751088
sg9
(ielbow.chemistry.xyzClass
xyzClass
p1080
(dp1081
g12
I1
sg13
F57.295779513082323
sS'y'
F-1.3109999999999999
sS'x'
F6.2030000000000003
sg14
(F6.2030000000000003
F-1.3109999999999999
F-1.694
tp1082
sS'z'
F-1.694
sbsg16
(ielbow.chemistry.xyzClass
xyzClass
p1083
(dp1084
g12
I0
sg13
F57.295779513082323
sS'y'
F1.1492736023295722e-16
sS'x'
F-0.54116923611878898
sg14
(F-0.54116923611878898
F1.1492736023295722e-16
F-0.93845311409766585
tp1085
sS'z'
F-0.93845311409766585
sbsg14
(ielbow.chemistry.xyzClass
xyzClass
p1086
(dp1087
g12
I0
sg13
F57.295779513082323
sS'y'
F-2.2022745499255105
sS'x'
F-0.14347191090737477
sg14
(F-0.14347191090737477
F-2.2022745499255105
F-6.1490394252155305
tp1088
sS'z'
F-6.1490394252155305
sbsg23
I1
sg24
S''
sg25
(lp1089
sg27
S'H1'
p1090
sg30
S'R3Z'
p1091
sg133
g134
sg33
S'   24'
p1092
sg36
I140376066751088
sg37
(lp1093
g5
asg137
Nsg138
I24
sg139
Nsg140
g1080
sg141
F1
sg142
I0
sg143
I23
sg144
S'140376063730360_2'
p1094
sg146
S'R3Z:1:A:'
p1095
sg148
S'R3Z:1:A:???'
p1096
sg150
(lp1097
sg152
S'A'
sg153
S' H1 '
p1098
sg155
I23
sg156
S'H'
sg157
S'A'
sg158
S'   24'
p1099
sg160
g1098
sg161
I01
sg162
g163
sg164
g1086
sg165
g1098
sS'z'
F-6.1490394252155305
sg166
g1080
sg167
S''
sg168
I1
sg169
I24
sg170
S'H'
sg171
S' '
sg172
F1.0079
sS'y'
F-2.2022745499255105
sS'x'
F-0.14347191090737477
sg173
I0
sg174
I23
sbasg137
g175
sg138
I1
sg139
Nsg140
g10
sg148
S'R3Z:1:A:???'
p1100
sg177
I01
sg142
I0
sg168
I1
sg143
I0
sg144
g1067
sg146
S'R3Z:1:A:'
p1101
sg141
F1
sg150
(lp1102
sg152
S'A'
sg153
S' C1 '
p1103
sg155
I0
sg133
g134
sg156
S'C'
sg157
S'A'
sg158
S'    1'
p1104
sg160
g1103
sg161
I01
sg162
g183
sg164
g20
sg165
g1103
sS'z'
F-5.1109528403872853
sg166
g10
sg167
S''
sg184
I0
sg185
g192
sg222
I01
sg314
I2
sg170
S'C'
sg171
S' '
sg172
F12.010999999999999
sg315
I1
sg223
g310
sS'y'
F-1.9370149196854434
sS'x'
F0.063814889365408467
sg173
I0
sg169
I1
sg174
I0
sbag39
ag55
ag71
ag87
ag103
ag316
ag329
ag342
ag356
ag392
ag408
ag424
ag440
ag456
ag472
ag488
ag504
ag520
ag542
ag558
ag574
ag708
ag1078
ag1051
ag1025
ag119
ag949
ag971
ag905
ag844
ag866
ag807
ag778
ag724
atRp1105
(dp1106
S'CIF_ligand_type'
p1107
S'ligand'
p1108
sS'original_ring_class'
p1109
(lp1110
g1
(celbow.chemistry.RingClass
RingClass
p1111
g3
(lp1112
(lp1113
(ielbow.chemistry.RingClass
empty
p1114
(dp1115
g138
I13
sg9
(ielbow.chemistry.xyzClass
xyzClass
p1116
(dp1117
g12
I1
sg13
F57.295779513082323
sS'y'
F-0.49199999999999999
sS'x'
F-1.4770000000000001
sg14
g428
sS'z'
F0.77400000000000002
sbsg16
(ielbow.chemistry.xyzClass
xyzClass
p1118
(dp1119
g12
I0
sg13
F57.295779513082323
sS'y'
F-1.1011055363769386
sS'x'
F0.80000000000000004
sg14
g667
sS'z'
F0
sbsg156
S'C'
sg14
(ielbow.chemistry.xyzClass
xyzClass
p1120
(dp1121
g12
I1
sg13
F57.295779513082323
sS'y'
F1.6653345369377348e-16
sS'x'
F1.6000000000000001
sg14
(F0
F0
I0
tp1122
sS'z'
I0
sbsg177
S'Y'
sba(ielbow.chemistry.RingClass
empty
p1123
(dp1124
g138
I17
sg9
(ielbow.chemistry.xyzClass
xyzClass
p1125
(dp1126
g12
I1
sg13
F57.295779513082323
sS'y'
F-0.91400000000000003
sS'x'
F-2.5739999999999998
sg14
g492
sS'z'
F0.042999999999999997
sbsg16
(ielbow.chemistry.xyzClass
xyzClass
p1127
(dp1128
g12
I0
sg13
F57.295779513082323
sS'y'
F0.42058488969530705
sS'x'
F1.2944271909999159
sg14
g661
sS'z'
F0
sbsg156
S'C'
sg14
(ielbow.chemistry.xyzClass
xyzClass
p1129
(dp1130
g12
I1
sg13
F57.295779513082323
sS'y'
F1.5216904260722459
sS'x'
F2.0944271909999159
sg14
(F1.6000000000000001
F0
I0
tp1131
sS'z'
I0
sbsg177
S'Y'
sba(ielbow.chemistry.RingClass
empty
p1132
(dp1133
g138
I16
sg9
(ielbow.chemistry.xyzClass
xyzClass
p1134
(dp1135
g12
I1
sg13
F57.295779513082323
sS'y'
F-2.641
sS'x'
F-2.7999999999999998
sg14
g476
sS'z'
F0.28100000000000003
sbsg16
(ielbow.chemistry.xyzClass
xyzClass
p1136
(dp1137
g12
I0
sg13
F57.295779513082323
sS'y'
F1.3610412933632641
sS'x'
F-2.2204460492503131e-16
sg14
g655
sS'z'
F0
sbsg156
S'S'
sg14
(ielbow.chemistry.xyzClass
xyzClass
p1138
(dp1139
g12
I1
sg13
F57.295779513082323
sS'y'
F2.4621468297402029
sS'x'
F0.79999999999999982
sg14
(F1.6000000000000001
F0
I0
tp1140
sS'z'
I0
sbsg177
S'Y'
sba(ielbow.chemistry.RingClass
empty
p1141
(dp1142
g138
I15
sg9
(ielbow.chemistry.xyzClass
xyzClass
p1143
(dp1144
g12
I1
sg13
F57.295779513082323
sS'y'
F-2.7280000000000002
sS'x'
F-1.454
sg14
g460
sS'z'
F1.3220000000000001
sbsg16
(ielbow.chemistry.xyzClass
xyzClass
p1145
(dp1146
g12
I0
sg13
F57.295779513082323
sS'y'
F0.42058488969530683
sS'x'
F-1.2944271909999161
sg14
g679
sS'z'
F0
sbsg156
S'C'
sg14
(ielbow.chemistry.xyzClass
xyzClass
p1147
(dp1148
g12
I1
sg13
F57.295779513082323
sS'y'
F1.5216904260722457
sS'x'
F-0.49442719099991594
sg14
(F1.6000000000000001
F0
I0
tp1149
sS'z'
I0
sbsg177
S'Y'
sba(ielbow.chemistry.RingClass
empty
p1150
(dp1151
g138
I14
sg9
(ielbow.chemistry.xyzClass
xyzClass
p1152
(dp1153
g12
I1
sg13
F57.295779513082323
sS'y'
F-1.536
sS'x'
F-0.88200000000000001
sg14
g444
sS'z'
F1.4730000000000001
sbsg16
(ielbow.chemistry.xyzClass
xyzClass
p1154
(dp1155
g12
I0
sg13
F57.295779513082323
sS'y'
F-1.1011055363769389
sS'x'
F-0.80000000000000004
sg14
g673
sS'z'
F0
sbsg156
S'C'
sg14
(ielbow.chemistry.xyzClass
xyzClass
p1156
(dp1157
g12
I1
sg13
F57.295779513082323
sS'y'
F0
sS'x'
F0
sg14
(F1.6000000000000001
F0
I0
tp1158
sS'z'
I0
sbsg177
S'Y'
sbaa(lp1159
(ielbow.chemistry.RingClass
empty
p1160
(dp1161
g16
(ielbow.chemistry.xyzClass
xyzClass
p1162
(dp1163
g12
I0
sg13
F57.295779513082323
sS'y'
F-1.3856406460551023
sS'x'
F0.80000000000000082
sg14
g608
sS'z'
F0
sbsg138
I12
sg156
S'N'
sg14
(ielbow.chemistry.xyzClass
xyzClass
p1164
(dp1165
g12
I1
sg13
F57.295779513082323
sS'y'
F0
sS'x'
F1.600000000000001
sg14
(F0
F0
I1
tp1166
sS'z'
I1
sbsg9
(ielbow.chemistry.xyzClass
xyzClass
p1167
(dp1168
g12
I1
sg13
F57.295779513082323
sS'y'
F0.86399999999999999
sS'x'
F-1.1279999999999999
sg14
g412
sS'z'
F0.71699999999999997
sbsba(ielbow.chemistry.RingClass
empty
p1169
(dp1170
g16
(ielbow.chemistry.xyzClass
xyzClass
p1171
(dp1172
g12
I0
sg13
F57.295779513082323
sS'y'
F4.4408920985006262e-16
sS'x'
F1.6000000000000005
sg14
g638
sS'z'
F0
sbsg138
I21
sg156
S'C'
sg14
(ielbow.chemistry.xyzClass
xyzClass
p1173
(dp1174
g12
I1
sg13
F57.295779513082323
sS'y'
F1.3856406460551027
sS'x'
F2.4000000000000008
sg14
(F1.6000000000000001
F0
I1
tp1175
sS'z'
I1
sbsg9
(ielbow.chemistry.xyzClass
xyzClass
p1176
(dp1177
g12
I1
sg13
F57.295779513082323
sS'y'
F1.722
sS'x'
F-1.8460000000000001
sg14
g562
sS'z'
F-0.024
sbsba(ielbow.chemistry.RingClass
empty
p1178
(dp1179
g16
(ielbow.chemistry.xyzClass
xyzClass
p1180
(dp1181
g12
I0
sg13
F57.295779513082323
sS'y'
F1.3856406460551023
sS'x'
F0.79999999999999971
sg14
g632
sS'z'
F0
sbsg138
I20
sg156
S'N'
sg14
(ielbow.chemistry.xyzClass
xyzClass
p1182
(dp1183
g12
I1
sg13
F57.295779513082323
sS'y'
F2.7712812921102046
sS'x'
F1.5999999999999999
sg14
(F1.6000000000000001
F0
I1
tp1184
sS'z'
I1
sbsg9
(ielbow.chemistry.xyzClass
xyzClass
p1185
(dp1186
g12
I1
sg13
F57.295779513082323
sS'y'
F1.319
sS'x'
F-2.9089999999999998
sg14
g546
sS'z'
F-0.73999999999999999
sbsba(ielbow.chemistry.RingClass
empty
p1187
(dp1188
g16
(ielbow.chemistry.xyzClass
xyzClass
p1189
(dp1190
g12
I0
sg13
F57.295779513082323
sS'y'
F1.3856406460551018
sS'x'
F-0.8000000000000006
sg14
g626
sS'z'
F0
sbsg138
I18
sg156
S'C'
sg14
(ielbow.chemistry.xyzClass
xyzClass
p1191
(dp1192
g12
I1
sg13
F57.295779513082323
sS'y'
F2.7712812921102041
sS'x'
F-4.4408920985006262e-16
sg14
(F1.6000000000000001
F0
I1
tp1193
sS'z'
I1
sbsg9
(ielbow.chemistry.xyzClass
xyzClass
p1194
(dp1195
g12
I1
sg13
F57.295779513082323
sS'y'
F0.029999999999999999
sS'x'
F-3.2970000000000002
sg14
g508
sS'z'
F-0.72899999999999998
sbsba(ielbow.chemistry.RingClass
empty
p1196
(dp1197
g138
I17
sg9
g1125
sg16
(ielbow.chemistry.xyzClass
xyzClass
p1198
(dp1199
g12
I0
sg13
F57.295779513082323
sS'y'
F-4.4408920985006262e-16
sS'x'
F-1.6000000000000005
sg14
g620
sS'z'
F0
sbsg156
S'C'
sg14
(ielbow.chemistry.xyzClass
xyzClass
p1200
(dp1201
g12
I1
sg13
F57.295779513082323
sS'y'
F1.3856406460551018
sS'x'
F-0.80000000000000027
sg14
(F1.6000000000000001
F0
I1
tp1202
sS'z'
I1
sbsg177
S'Y'
sba(ielbow.chemistry.RingClass
empty
p1203
(dp1204
g138
I13
sg9
g1116
sg16
(ielbow.chemistry.xyzClass
xyzClass
p1205
(dp1206
g12
I0
sg13
F57.295779513082323
sS'y'
F-1.3856406460551023
sS'x'
F-0.80000000000000016
sg14
g614
sS'z'
F0
sbsg156
S'C'
sg14
(ielbow.chemistry.xyzClass
xyzClass
p1207
(dp1208
g12
I1
sg13
F57.295779513082323
sS'y'
F0
sS'x'
F0
sg14
(F1.6000000000000001
F0
I1
tp1209
sS'z'
I1
sbsg177
S'Y'
sbaatRp1210
(dp1211
S'use_cctbx'
p1212
I01
sS'RestraintWeights'
p1213
(dp1214
S'LoopClass'
p1215
(dp1216
S'angle'
p1217
F0.25
sS'bond'
p1218
I50
ssS'GetCCTBXRestraints'
p1219
(dp1220
g1217
F1
sg1218
F100
ssS'ZMatrixClass'
p1221
(dp1222
g1217
I10
sg1218
F100
ssS'AdjustRestraintClass'
p1223
(dp1224
S'ring_planar'
p1225
F0.10000000000000001
sS'aromatic_bond'
p1226
F100
sg1217
F1.5
sg167
F50
sS'loose_angle'
p1227
F0.25
sS'non_ring_planar'
p1228
F0.20000000000000001
ssS'RingClass'
p1229
(dp1230
S'flatness'
p1231
F10
sg1217
F2
sS'chair_boat'
p1232
F1
sS'non_aromatic'
p1233
F10
sg1218
F200
ssS'ChiralClass'
p1234
(dp1235
g1218
F100
sssS'allow_boat_conformation'
p1236
I00
sS'ignore_list'
p1237
(lp1238
sS'rejected'
p1239
(lp1240
sS'ignore'
p1241
(lp1242
sS'edges'
p1243
(dp1244
sS'coordinates'
p1245
(lp1246
F0
aF0
aF0
aF0
aF0
aF0
aF0
aF0
aF0
aF0
aF0
aF0
asS'UseRestraintWeights'
p1247
I01
sS'UseRestraintValues'
p1248
I01
sS'min_iter_rings'
p1249
I7
sS'RestraintValues'
p1250
(dp1251
g1229
(dp1252
g1217
(dp1253
I3
F60
sI4
F90
sI5
F106
sI6
F113
ssS'dihedral'
p1254
(dp1255
I5
(lp1256
F25
aI10
asI6
(lp1257
F55
aI1
assssbag1
(g1111
g3
(lp1258
(lp1259
(ielbow.chemistry.RingClass
empty
p1260
(dp1261
g138
I1
sg9
(ielbow.chemistry.xyzClass
xyzClass
p1262
(dp1263
g12
I1
sg13
F57.295779513082323
sS'y'
F-1.0569999999999999
sS'x'
F5.2329999999999997
sg14
g15
sS'z'
F-1.2929999999999999
sbsg16
(ielbow.chemistry.xyzClass
xyzClass
p1264
(dp1265
g12
I0
sg13
F57.295779513082323
sS'y'
F-1.3856406460551023
sS'x'
F0.80000000000000082
sg14
g191
sS'z'
F0
sbsg156
S'C'
sg14
(ielbow.chemistry.xyzClass
xyzClass
p1266
(dp1267
g12
I1
sg13
F57.295779513082323
sS'y'
F0
sS'x'
F1.600000000000001
sg14
(F0
F0
I0
tp1268
sS'z'
I0
sbsg177
S'Y'
sba(ielbow.chemistry.RingClass
empty
p1269
(dp1270
g138
I6
sg9
(ielbow.chemistry.xyzClass
xyzClass
p1271
(dp1272
g12
I1
sg13
F57.295779513082323
sS'y'
F0.13300000000000001
sS'x'
F5.0579999999999998
sg14
g107
sS'z'
F-0.61099999999999999
sbsg16
(ielbow.chemistry.xyzClass
xyzClass
p1273
(dp1274
g12
I0
sg13
F57.295779513082323
sS'y'
F4.4408920985006262e-16
sS'x'
F1.6000000000000005
sg14
g221
sS'z'
F0
sbsg156
S'C'
sg14
(ielbow.chemistry.xyzClass
xyzClass
p1275
(dp1276
g12
I1
sg13
F57.295779513082323
sS'y'
F1.3856406460551027
sS'x'
F2.4000000000000008
sg14
(F1.6000000000000001
F0
I0
tp1277
sS'z'
I0
sbsg177
S'Y'
sba(ielbow.chemistry.RingClass
empty
p1278
(dp1279
g138
I5
sg9
(ielbow.chemistry.xyzClass
xyzClass
p1280
(dp1281
g12
I1
sg13
F57.295779513082323
sS'y'
F0.46000000000000002
sS'x'
F3.8149999999999999
sg14
g91
sS'z'
F-0.089999999999999997
sbsg16
(ielbow.chemistry.xyzClass
xyzClass
p1282
(dp1283
g12
I0
sg13
F57.295779513082323
sS'y'
F1.3856406460551023
sS'x'
F0.79999999999999971
sg14
g215
sS'z'
F0
sbsg156
S'C'
sg14
(ielbow.chemistry.xyzClass
xyzClass
p1284
(dp1285
g12
I1
sg13
F57.295779513082323
sS'y'
F2.7712812921102046
sS'x'
F1.5999999999999999
sg14
(F1.6000000000000001
F0
I0
tp1286
sS'z'
I0
sbsg177
S'Y'
sba(ielbow.chemistry.RingClass
empty
p1287
(dp1288
g138
I4
sg9
(ielbow.chemistry.xyzClass
xyzClass
p1289
(dp1290
g12
I1
sg13
F57.295779513082323
sS'y'
F-0.41399999999999998
sS'x'
F2.7469999999999999
sg14
g75
sS'z'
F-0.253
sbsg16
(ielbow.chemistry.xyzClass
xyzClass
p1291
(dp1292
g12
I0
sg13
F57.295779513082323
sS'y'
F1.3856406460551018
sS'x'
F-0.8000000000000006
sg14
g209
sS'z'
F0
sbsg156
S'C'
sg14
(ielbow.chemistry.xyzClass
xyzClass
p1293
(dp1294
g12
I1
sg13
F57.295779513082323
sS'y'
F2.7712812921102041
sS'x'
F-4.4408920985006262e-16
sg14
(F1.6000000000000001
F0
I0
tp1295
sS'z'
I0
sbsg177
S'Y'
sba(ielbow.chemistry.RingClass
empty
p1296
(dp1297
g138
I3
sg9
(ielbow.chemistry.xyzClass
xyzClass
p1298
(dp1299
g12
I1
sg13
F57.295779513082323
sS'y'
F-1.6060000000000001
sS'x'
F2.9279999999999999
sg14
g59
sS'z'
F-0.93799999999999994
sbsg16
(ielbow.chemistry.xyzClass
xyzClass
p1300
(dp1301
g12
I0
sg13
F57.295779513082323
sS'y'
F-4.4408920985006262e-16
sS'x'
F-1.6000000000000005
sg14
g203
sS'z'
F0
sbsg156
S'C'
sg14
(ielbow.chemistry.xyzClass
xyzClass
p1302
(dp1303
g12
I1
sg13
F57.295779513082323
sS'y'
F1.3856406460551018
sS'x'
F-0.80000000000000027
sg14
(F1.6000000000000001
F0
I0
tp1304
sS'z'
I0
sbsg177
S'Y'
sba(ielbow.chemistry.RingClass
empty
p1305
(dp1306
g138
I2
sg9
(ielbow.chemistry.xyzClass
xyzClass
p1307
(dp1308
g12
I1
sg13
F57.295779513082323
sS'y'
F-1.9239999999999999
sS'x'
F4.1689999999999996
sg14
g43
sS'z'
F-1.456
sbsg16
(ielbow.chemistry.xyzClass
xyzClass
p1309
(dp1310
g12
I0
sg13
F57.295779513082323
sS'y'
F-1.3856406460551023
sS'x'
F-0.80000000000000016
sg14
g197
sS'z'
F0
sbsg156
S'C'
sg14
(ielbow.chemistry.xyzClass
xyzClass
p1311
(dp1312
g12
I1
sg13
F57.295779513082323
sS'y'
F0
sS'x'
F0
sg14
(F1.6000000000000001
F0
I0
tp1313
sS'z'
I0
sbsg177
S'Y'
sbaa(lp1314
(ielbow.chemistry.RingClass
empty
p1315
(dp1316
g138
I4
sg9
g1289
sg16
(ielbow.chemistry.xyzClass
xyzClass
p1317
(dp1318
g12
I0
sg13
F57.295779513082323
sS'y'
F-1.3856406460551023
sS'x'
F0.80000000000000082
sg14
g268
sS'z'
F0
sbsg156
S'C'
sg14
(ielbow.chemistry.xyzClass
xyzClass
p1319
(dp1320
g12
I1
sg13
F57.295779513082323
sS'y'
F0
sS'x'
F1.600000000000001
sg14
(F0
F0
I1
tp1321
sS'z'
I1
sbsg177
S'Y'
sba(ielbow.chemistry.RingClass
empty
p1322
(dp1323
g16
(ielbow.chemistry.xyzClass
xyzClass
p1324
(dp1325
g12
I0
sg13
F57.295779513082323
sS'y'
F4.4408920985006262e-16
sS'x'
F1.6000000000000005
sg14
g262
sS'z'
F0
sbsg138
I10
sg156
S'O'
sg14
(ielbow.chemistry.xyzClass
xyzClass
p1326
(dp1327
g12
I1
sg13
F57.295779513082323
sS'y'
F1.3856406460551027
sS'x'
F2.4000000000000008
sg14
(F1.6000000000000001
F0
I1
tp1328
sS'z'
I1
sbsg9
(ielbow.chemistry.xyzClass
xyzClass
p1329
(dp1330
g12
I1
sg13
F57.295779513082323
sS'y'
F-0.11700000000000001
sS'x'
F1.52
sg14
g259
sS'z'
F0.25800000000000001
sbsba(ielbow.chemistry.RingClass
empty
p1331
(dp1332
g16
(ielbow.chemistry.xyzClass
xyzClass
p1333
(dp1334
g12
I0
sg13
F57.295779513082323
sS'y'
F1.3856406460551023
sS'x'
F0.79999999999999971
sg14
g253
sS'z'
F0
sbsg138
I9
sg156
S'C'
sg14
(ielbow.chemistry.xyzClass
xyzClass
p1335
(dp1336
g12
I1
sg13
F57.295779513082323
sS'y'
F2.7712812921102046
sS'x'
F1.5999999999999999
sg14
(F1.6000000000000001
F0
I1
tp1337
sS'z'
I1
sbsg9
(ielbow.chemistry.xyzClass
xyzClass
p1338
(dp1339
g12
I1
sg13
F57.295779513082323
sS'y'
F1.25
sS'x'
F1.2849999999999999
sg14
g250
sS'z'
F0.61299999999999999
sbsba(ielbow.chemistry.RingClass
empty
p1340
(dp1341
g16
(ielbow.chemistry.xyzClass
xyzClass
p1342
(dp1343
g12
I0
sg13
F57.295779513082323
sS'y'
F1.3856406460551018
sS'x'
F-0.8000000000000006
sg14
g244
sS'z'
F0
sbsg138
I8
sg156
S'C'
sg14
(ielbow.chemistry.xyzClass
xyzClass
p1344
(dp1345
g12
I1
sg13
F57.295779513082323
sS'y'
F2.7712812921102041
sS'x'
F-4.4408920985006262e-16
sg14
(F1.6000000000000001
F0
I1
tp1346
sS'z'
I1
sbsg9
(ielbow.chemistry.xyzClass
xyzClass
p1347
(dp1348
g12
I1
sg13
F57.295779513082323
sS'y'
F1.7569999999999999
sS'x'
F2.4980000000000002
sg14
g241
sS'z'
F1.4039999999999999
sbsba(ielbow.chemistry.RingClass
empty
p1349
(dp1350
g16
(ielbow.chemistry.xyzClass
xyzClass
p1351
(dp1352
g12
I0
sg13
F57.295779513082323
sS'y'
F-4.4408920985006262e-16
sS'x'
F-1.6000000000000005
sg14
g235
sS'z'
F0
sbsg138
I7
sg156
S'O'
sg14
(ielbow.chemistry.xyzClass
xyzClass
p1353
(dp1354
g12
I1
sg13
F57.295779513082323
sS'y'
F1.3856406460551018
sS'x'
F-0.80000000000000027
sg14
(F1.6000000000000001
F0
I1
tp1355
sS'z'
I1
sbsg9
(ielbow.chemistry.xyzClass
xyzClass
p1356
(dp1357
g12
I1
sg13
F57.295779513082323
sS'y'
F1.6379999999999999
sS'x'
F3.657
sg14
g232
sS'z'
F0.57299999999999995
sbsba(ielbow.chemistry.RingClass
empty
p1358
(dp1359
g138
I5
sg9
g1280
sg16
(ielbow.chemistry.xyzClass
xyzClass
p1360
(dp1361
g12
I0
sg13
F57.295779513082323
sS'y'
F-1.3856406460551023
sS'x'
F-0.80000000000000016
sg14
g274
sS'z'
F0
sbsg156
S'C'
sg14
(ielbow.chemistry.xyzClass
xyzClass
p1362
(dp1363
g12
I1
sg13
F57.295779513082323
sS'y'
F0
sS'x'
F0
sg14
(F1.6000000000000001
F0
I1
tp1364
sS'z'
I1
sbsg177
S'Y'
sbaatRp1365
(dp1366
g1212
I01
sg1213
(dp1367
g1215
(dp1368
g1217
F0.25
sg1218
I50
ssg1219
(dp1369
g1217
F1
sg1218
F100
ssg1221
(dp1370
g1217
I10
sg1218
F100
ssg1223
(dp1371
g1225
F0.10000000000000001
sg1226
F100
sg1217
F1.5
sg167
F50
sg1227
F0.25
sg1228
F0.20000000000000001
ssg1229
(dp1372
g1231
F10
sg1217
F2
sg1232
F1
sg1233
F10
sg1218
F200
ssg1234
(dp1373
g1218
F100
sssg1236
I00
sg1237
(lp1374
sg1239
(lp1375
sg1241
(lp1376
sg1243
(dp1377
sg1245
(lp1378
F0
aF0
aF0
aF0
aF0
aF0
aF0
aF0
aF0
aF0
aF0
aF0
asg1247
I01
sg1248
I01
sg1249
I7
sg1250
(dp1379
g1229
(dp1380
g1217
(dp1381
I3
F60
sI4
F90
sI5
F106
sI6
F113
ssg1254
(dp1382
I5
(lp1383
F25
aI10
asI6
(lp1384
F55
aI1
assssbasS'energy'
p1385
F144.46908841346391
sS'chiral_restraint'
p1386
(dp1387
I1
g1
(celbow.cctbx_api.RestraintClass
RestraintClass
p1388
c__builtin__
dict
p1389
(dp1390
(I30
I9
I8
tp1391
(lp1392
F109.47122063449069
aF1
as(I9
I11
tp1393
(lp1394
F1.527126
aF100
as(I11
I9
I10
tp1395
(lp1396
F109.47122063449069
aF1
asI8
(F1.146287513793582
F0.81351029998936575
F4.7832055695004634
tp1397
sI9
(F1.9079329511545062
F-0.075024681859015896
F3.8814559093961543
tp1398
s(I30
I9
tp1399
(lp1400
F1.0833090000000001
aF100
asI11
(F1.7974669529511256
F1.2565027606363017
F2.053975198117461
tp1401
s(I9
I10
tp1402
(lp1403
F1.398717
aF100
as(I30
I9
I10
tp1404
(lp1405
F109.47122063449069
aF1
as(I11
I9
I8
tp1406
(lp1407
F109.47122063449069
aF1
as(I30
I9
I11
tp1408
(lp1409
F109.47122063449069
aF1
asI10
(F0.059705993513760713
F1.6284368399339264
F4.0441948993367864
tp1410
s(I10
I9
I8
tp1411
(lp1412
F109.47122063449069
aF1
as(I9
I8
tp1413
(lp1414
F1.527126
aF100
asI30
(F1.6425231119948425
F0.35875971334477907
F0.1056366024208879
tp1415
stRp1416
(dp1417
S'link'
p1418
(dp1419
I8
I0
sI9
I1
sI10
I2
sI11
I3
sI30
I4
ssS'hydrogens'
p1420
(lp1421
sS'chiral_weights'
p1422
(lp1423
F50
asS'restraint_type'
p1424
(dp1425
sS'type'
p1426
NsS'chirals'
p1427
(lp1428
(lp1429
(lp1430
(lp1431
g342
ag329
ag356
ag392
aa(lp1432
F-2.5110833783732081
aI01
aF1
aaaasS'overwrite'
p1433
I00
sbssS'ligand_type'
p1434
S'NON-POLYMER'
p1435
sS'OutputHeaderData'
p1436
(dp1437
S'qm_method'
p1438
S'AM1'
p1439
sS'random_seed'
p1440
S'3628800'
p1441
sS'qm_basis'
p1442
g1439
sS'file'
p1443
S'/home/holly/phenix-1.15.2-3472/modules/chem_data/chemical_components/r/data_R3Z.cif'
p1444
ssS'OriginalFormat'
p1445
g1
(celbow.formats.FormatClass
FormatClass
p1446
g1389
(dp1447
S'atom_names'
p1448
I01
sS'smiles'
p1449
I00
sS'bond_connections_optional'
p1450
I00
sS'bond_orders'
p1451
I01
sS'bond_connections'
p1452
I01
sS'xyz_coordinates'
p1453
I00
stRp1454
(dp1455
S'format'
p1456
S'CHEMICAL COMPONENTS'
p1457
sbsS'WriteCIF2String_defaults'
p1458
(lp1459
I00
aI01
aS'R3Z'
p1460
aS''
aI00
aI01
aI00
aS'retain'
p1461
aI00
aI01
aI01
a(I4
I3
I2
tp1462
aI00
aI00
aNaI01
a(lp1463
a(lp1464
a(lp1465
a(lp1466
aI00
aI00
asS'chiral_class'
p1467
(dp1468
I1
g1
(celbow.chemistry.ChiralClass
ChiralClass
p1469
g3
(lp1470
g905
ag342
ag329
ag356
ag392
atRp1471
(dp1472
S'rs_priority'
p1473
(lp1474
g905
ag392
ag329
ag356
asS'id_tag'
p1475
I140376063730360
sS'equil'
p1476
F-2.5110833783732081
sS'parent'
p1477
g1105
sS'bonds'
p1478
g1
(celbow.chemistry.InternalCoordinateListClass
InternalCoordinateListClass
p1479
g3
(lp1480
g1
(celbow.chemistry.BondClass
BondClass
p1481
g3
(lp1482
g5
ag39
atRp1483
(dp1484
S'order_conect'
p1485
I1
sg1476
F1.385372
sS'max_atoms'
p1486
I2
sg156
S':'
sS'symbols'
p1487
(lp1488
sS'restrain'
p1489
I00
sS'input_order'
p1490
I2
sS'order'
p1491
F1.5
sS'neutron'
p1492
F1.4211167480037505
sbag1
(g1481
g3
(lp1493
g5
ag103
atRp1494
(dp1495
g1485
I2
sg1476
F1.385372
sg1486
I2
sg156
S':'
sg1487
g1488
sg1489
I00
sg1490
I1
sg1491
F1.5
sg1492
F1.4043225733498581
sbag1
(g1481
g3
(lp1496
g39
ag55
atRp1497
(dp1498
g1485
I2
sg1476
F1.385372
sg1486
I2
sg156
S':'
sg1487
g1488
sg1489
I00
sg1490
I1
sg1491
F1.5
sg1492
F1.4033854443777805
sbag1
(g1481
g3
(lp1499
g55
ag71
atRp1500
(dp1501
g1485
I1
sg1476
F1.385372
sg1486
I2
sg156
S':'
sg1487
g1488
sg1489
I00
sg1490
I2
sg1491
F1.5
sg1492
F1.4047664648968463
sbag1
(g1481
g3
(lp1502
g71
ag87
atRp1503
(dp1504
g1485
I2
sg1476
F1.385372
sg1486
I2
sg156
S':'
sg1487
g1488
sg1489
I00
sg1490
I1
sg1491
F1.5
sg1492
F1.4265154003623643
sbag1
(g1481
g3
(lp1505
g71
ag356
atRp1506
(dp1507
g1476
F1.398717
sg1486
I2
sg156
S'-'
sg1487
g1488
sg1489
I00
sg1490
I1
sg1491
I1
sg1492
F1.4476669445104262
sbag1
(g1481
g3
(lp1508
g87
ag103
atRp1509
(dp1510
g1485
I1
sg1476
F1.385372
sg1486
I2
sg156
S':'
sg1487
g1488
sg1489
I00
sg1490
I2
sg1491
F1.5
sg1492
F1.4051791434480128
sbag1
(g1481
g3
(lp1511
g87
ag316
atRp1512
(dp1513
g1476
F1.398717
sg1486
I2
sg156
S'-'
sg1487
g1488
sg1489
I00
sg1490
I1
sg1491
I1
sg1492
F1.4580672362207208
sbag1
(g1481
g3
(lp1514
g316
ag329
atRp1515
(dp1516
g1476
F1.398717
sg1486
I2
sg156
S'-'
sg1487
g1488
sg1489
I00
sg1490
I1
sg1491
I1
sg1492
F1.3616390430427157
sbag1
(g1481
g3
(lp1517
g329
ag342
atRp1518
(dp1519
g1476
F1.527126
sg1486
I2
sg156
S'-'
sg1487
g1488
sg1489
I00
sg1490
I1
sg1491
I1
sg1492
F1.5310467370963858
sbag1
(g1481
g3
(lp1520
g342
ag356
atRp1521
(dp1522
g1476
F1.398717
sg1486
I2
sg156
S'-'
sg1487
g1488
sg1489
I00
sg1490
I1
sg1491
I1
sg1492
F1.3700192413180632
sbag1
(g1481
g3
(lp1523
g342
ag392
atRp1524
(dp1525
g1476
F1.527126
sg1486
I2
sg156
S'-'
sg1487
g1488
sg1489
I00
sg1490
I1
sg1491
I1
sg1492
F1.5736877522886401
sbag1
(g1481
g3
(lp1526
g392
ag408
atRp1527
(dp1528
g1476
F1.451533
sg1486
I2
sg156
S'-'
sg1487
g1488
sg1489
I00
sg1490
I1
sg1491
I1
sg1492
F1.4552153174827653
sbag1
(g1481
g3
(lp1529
g408
ag424
atRp1530
(dp1531
g1476
F1.451533
sg1486
I2
sg156
S'-'
sg1487
g1488
sg1489
I00
sg1490
I1
sg1491
I1
sg1492
F1.4801177895212749
sbag1
(g1481
g3
(lp1532
g408
ag558
atRp1533
(dp1534
g1476
F1.451533
sg1486
I2
sg156
S'-'
sg1487
g1488
sg1489
I00
sg1490
I1
sg1491
I1
sg1492
F1.4904846977045163
sbag1
(g1481
g3
(lp1535
g424
ag440
atRp1536
(dp1537
g1476
F1.385372
sg1486
I2
sg156
S':'
sg1487
g1488
sg1489
I00
sg1490
I1
sg1491
F1.5
sg1492
F1.6216848733205576
sbag1
(g1481
g3
(lp1538
g424
ag488
atRp1539
(dp1540
g1476
F1.385372
sg1486
I2
sg156
S':'
sg1487
g1488
sg1489
I00
sg1490
I2
sg1491
F1.5
sg1492
F1.440025493494024
sbag1
(g1481
g3
(lp1541
g440
ag456
atRp1542
(dp1543
g1476
F1.385372
sg1486
I2
sg156
S':'
sg1487
g1488
sg1489
I00
sg1490
I2
sg1491
F1.5
sg1492
F1.4541076795777088
sbag1
(g1481
g3
(lp1544
g456
ag472
atRp1545
(dp1546
g1476
F1.725176
sg1486
I2
sg156
S':'
sg1487
g1488
sg1489
I00
sg1490
I1
sg1491
F1.5
sg1492
F1.5578195740480174
sbag1
(g1481
g3
(lp1547
g472
ag488
atRp1548
(dp1549
g1476
F1.725176
sg1486
I2
sg156
S':'
sg1487
g1488
sg1489
I00
sg1490
I1
sg1491
F1.5
sg1492
F1.5787692315523232
sbag1
(g1481
g3
(lp1550
g488
ag504
atRp1551
(dp1552
g1476
F1.527126
sg1486
I2
sg156
S'-'
sg1487
g1488
sg1489
I00
sg1490
I1
sg1491
I1
sg1492
F1.5065029763059994
sbag1
(g1481
g3
(lp1553
g504
ag520
atRp1554
(dp1555
g1476
F1.184607
sg1486
I2
sg156
S'='
sg1487
g1488
sg1489
I00
sg1490
I2
sg1491
I2
sg1492
F1.1923279148318497
sbag1
(g1481
g3
(lp1556
g504
ag542
atRp1557
(dp1558
g1476
F1.451533
sg1486
I2
sg156
S'-'
sg1487
g1488
sg1489
I00
sg1490
I1
sg1491
I1
sg1492
F1.4631344695590172
sbag1
(g1481
g3
(lp1559
g542
ag558
atRp1560
(dp1561
g1476
F1.451533
sg1486
I2
sg156
S'-'
sg1487
g1488
sg1489
I00
sg1490
I1
sg1491
I1
sg1492
F1.4756979142388005
sbag1
(g1481
g3
(lp1562
g542
ag708
atRp1563
(dp1564
g1476
F1.402458
sg1486
I2
sg156
S'-'
sg1487
g1488
sg1489
I00
sg1490
I1
sg1491
I1
sg1492
F1.414304844248583
sbag1
(g1481
g3
(lp1565
g558
ag574
atRp1566
(dp1567
g1476
F1.184607
sg1486
I2
sg156
S'='
sg1487
g1488
sg1489
I00
sg1490
I2
sg1491
I2
sg1492
F1.2083859627446152
sbag1
(g1481
g3
(lp1568
g5
ag1078
atRp1569
(dp1570
g1476
F0.93000000000000005
sg1486
I2
sg156
S'-'
sg1487
g1488
sg1489
I00
sg1490
I1
sg1491
I1
sg1492
F1.0800000000000001
sbag1
(g1481
g3
(lp1571
g39
ag1051
atRp1572
(dp1573
g1476
F0.93000000000000005
sg1486
I2
sg156
S'-'
sg1487
g1488
sg1489
I00
sg1490
I1
sg1491
I1
sg1492
F1.0800000000000001
sbag1
(g1481
g3
(lp1574
g55
ag1025
atRp1575
(dp1576
g1476
F0.93000000000000005
sg1486
I2
sg156
S'-'
sg1487
g1488
sg1489
I00
sg1490
I1
sg1491
I1
sg1492
F1.0800000000000001
sbag1
(g1481
g3
(lp1577
g103
ag119
atRp1578
(dp1579
g1476
F0.93000000000000005
sg1486
I2
sg156
S'-'
sg1487
g1488
sg1489
I00
sg1490
I1
sg1491
I1
sg1492
F1.0800000000000001
sbag1
(g1481
g3
(lp1580
g329
ag949
atRp1581
(dp1582
g1476
F0.96999999999999997
sg1486
I2
sg156
S'-'
sg1487
g1488
sg1489
I00
sg1490
I1
sg1491
I1
sg1492
F1.0900000000000001
sbag1
(g1481
g3
(lp1583
g329
ag971
atRp1584
(dp1585
g1476
F0.96999999999999997
sg1486
I2
sg156
S'-'
sg1487
g1488
sg1489
I00
sg1490
I1
sg1491
I1
sg1492
F1.0900000000000001
sbag1
(g1481
g3
(lp1586
g342
ag905
atRp1587
(dp1588
g1476
F0.96999999999999997
sg1486
I2
sg156
S'-'
sg1487
g1488
sg1489
I00
sg1490
I1
sg1491
I1
sg1492
F1.0900000000000001
sbag1
(g1481
g3
(lp1589
g392
ag844
atRp1590
(dp1591
g1476
F0.96999999999999997
sg1486
I2
sg156
S'-'
sg1487
g1488
sg1489
I00
sg1490
I1
sg1491
I1
sg1492
F1.0900000000000001
sbag1
(g1481
g3
(lp1592
g392
ag866
atRp1593
(dp1594
g1476
F0.96999999999999997
sg1486
I2
sg156
S'-'
sg1487
g1488
sg1489
I00
sg1490
I1
sg1491
I1
sg1492
F1.0900000000000001
sbag1
(g1481
g3
(lp1595
g440
ag807
atRp1596
(dp1597
g1476
F0.93000000000000005
sg1486
I2
sg156
S'-'
sg1487
g1488
sg1489
I00
sg1490
I1
sg1491
I1
sg1492
F1.0800000000000001
sbag1
(g1481
g3
(lp1598
g456
ag778
atRp1599
(dp1600
g1476
F0.93000000000000005
sg1486
I2
sg156
S'-'
sg1487
g1488
sg1489
I00
sg1490
I1
sg1491
I1
sg1492
F1.0800000000000001
sbag1
(g1481
g3
(lp1601
g708
ag724
atRp1602
(dp1603
g1476
F0.84999999999999998
sg1486
I2
sg156
S'-'
sg1487
g1488
sg1489
I00
sg1490
I1
sg1491
I1
sg1492
F0.97999999999999998
sbatRp1604
sS'skip'
p1605
(lp1606
I9
asS'get_bond_by_atoms_lookup'
p1607
(dp1608
S' C17: S16'
p1609
g1548
sS' C8 : H8A'
p1610
g1584
sS' C11: N12'
p1611
g1527
sS' C3 : C2 '
p1612
g1497
sS' C6 : H6 '
p1613
g1578
sS' C6 : C5 '
p1614
g1509
sS' C2 : H2 '
p1615
g1572
sS' C3 : C4 '
p1616
g1500
sS' O7 : C5 '
p1617
g1512
sS' C18: C17'
p1618
g1551
sS' C3 : H3 '
p1619
g1575
sS' C5 : C6 '
p1620
g1509
sS' C18: N20'
p1621
g1557
sS' H11: C11'
p1622
g1590
sS' C17: C13'
p1623
g1539
sS' H3 : C3 '
p1624
g1575
sS' O10: C4 '
p1625
g1506
sS' O22: C21'
p1626
g1566
sS' C14: H14'
p1627
g1596
sS' C8 : H8 '
p1628
g1581
sS' C17: C18'
p1629
g1551
sS'HO23: O23'
p1630
g1602
sS' H6 : C6 '
p1631
g1578
sS' C4 : C3 '
p1632
g1500
sS' N20: O23'
p1633
g1563
sS' N12: C21'
p1634
g1533
sS' N20: C18'
p1635
g1557
sS' C13: C17'
p1636
g1539
sS' C13: C14'
p1637
g1536
sS' C6 : C1 '
p1638
g1494
sS' H8A: C8 '
p1639
g1584
sS' C1 : H1 '
p1640
g1569
sS' O19: C18'
p1641
g1554
sS' C1 : C2 '
p1642
g1483
sS' H8 : C8 '
p1643
g1581
sS' H14: C14'
p1644
g1596
sS' C21: N20'
p1645
g1560
sS' S16: C15'
p1646
g1545
sS' S16: C17'
p1647
g1548
sS' N12: C13'
p1648
g1530
sS' C14: C13'
p1649
g1536
sS' C21: N12'
p1650
g1533
sS' O7 : C8 '
p1651
g1515
sS' N20: C21'
p1652
g1560
sS' C21: O22'
p1653
g1566
sS' C14: C15'
p1654
g1542
sS' C9 : C8 '
p1655
g1518
sS' C4 : C5 '
p1656
g1503
sS' C15: H15'
p1657
g1599
sS' C15: S16'
p1658
g1545
sS' H15: C15'
p1659
g1599
sS' C18: O19'
p1660
g1554
sS' C11:H11A'
p1661
g1593
sS' C11: H11'
p1662
g1590
sS' O23: N20'
p1663
g1563
sS' N12: C11'
p1664
g1527
sS' C15: C14'
p1665
g1542
sS' C2 : C3 '
p1666
g1497
sS' C8 : O7 '
p1667
g1515
sS' C9 : O10'
p1668
g1521
sS' O23:HO23'
p1669
g1602
sS' C1 : C6 '
p1670
g1494
sS' C5 : C4 '
p1671
g1503
sS' C4 : O10'
p1672
g1506
sS' C9 : C11'
p1673
g1524
sS'H11A: C11'
p1674
g1593
sS' H2 : C2 '
p1675
g1572
sS' C13: N12'
p1676
g1530
sS' H1 : C1 '
p1677
g1569
sS' C2 : C1 '
p1678
g1483
sS' C5 : O7 '
p1679
g1512
ssS'axis_atom'
p1680
g905
sS'angles'
p1681
g1
(g1479
g3
(lp1682
g1
(celbow.chemistry.AngleClass
AngleClass
p1683
g3
(lp1684
g55
ag39
ag5
atRp1685
(dp1686
g1487
(lp1687
S':'
aS':'
asg1489
I01
sg1476
F135
sbag1
(g1683
g3
(lp1688
g1051
ag39
ag5
atRp1689
(dp1690
g1487
(lp1691
S'-'
aS':'
asg1489
I01
sg1476
F120
sbag1
(g1683
g3
(lp1692
g87
ag103
ag5
atRp1693
(dp1694
g1487
(lp1695
S':'
aS':'
asg1489
I01
sg1476
F135
sbag1
(g1683
g3
(lp1696
g119
ag103
ag5
atRp1697
(dp1698
g1487
(lp1699
S'-'
aS':'
asg1489
I01
sg1476
F120
sbag1
(g1683
g3
(lp1700
g103
ag5
ag39
atRp1701
(dp1702
g1487
(lp1703
S':'
aS':'
asg1489
I01
sg1476
F135
sbag1
(g1683
g3
(lp1704
g1078
ag5
ag39
atRp1705
(dp1706
g1487
(lp1707
S'-'
aS':'
asg1489
I01
sg1476
F120
sbag1
(g1683
g3
(lp1708
g71
ag55
ag39
atRp1709
(dp1710
g1487
(lp1711
S':'
aS':'
asg1489
I01
sg1476
F135
sbag1
(g1683
g3
(lp1712
g1025
ag55
ag39
atRp1713
(dp1714
g1487
(lp1715
S'-'
aS':'
asg1489
I01
sg1476
F120
sbag1
(g1683
g3
(lp1716
g1051
ag39
ag55
atRp1717
(dp1718
g1487
(lp1719
S'-'
aS':'
asg1489
I01
sg1476
F120
sbag1
(g1683
g3
(lp1720
g87
ag71
ag55
atRp1721
(dp1722
g1487
(lp1723
S':'
aS':'
asg1489
I01
sg1476
F135
sbag1
(g1683
g3
(lp1724
g356
ag71
ag55
atRp1725
(dp1726
g1487
(lp1727
S'-'
aS':'
asg1489
I01
sg1476
F112.5
sbag1
(g1683
g3
(lp1728
g1025
ag55
ag71
atRp1729
(dp1730
g1487
(lp1731
S'-'
aS':'
asg1489
I01
sg1476
F120
sbag1
(g1683
g3
(lp1732
g103
ag87
ag71
atRp1733
(dp1734
g1487
(lp1735
S':'
aS':'
asg1489
I01
sg1476
F135
sbag1
(g1683
g3
(lp1736
g316
ag87
ag71
atRp1737
(dp1738
g1487
(lp1739
S'-'
aS':'
asg1489
I01
sg1476
F112.5
sbag1
(g1683
g3
(lp1740
g342
ag356
ag71
atRp1741
(dp1742
g1487
(lp1743
S'-'
aS'-'
asg1489
I00
sbag1
(g1683
g3
(lp1744
g356
ag71
ag87
atRp1745
(dp1746
g1487
(lp1747
S'-'
aS':'
asg1489
I01
sg1476
F112.5
sbag1
(g1683
g3
(lp1748
g119
ag103
ag87
atRp1749
(dp1750
g1487
(lp1751
S'-'
aS':'
asg1489
I01
sg1476
F120
sbag1
(g1683
g3
(lp1752
g329
ag316
ag87
atRp1753
(dp1754
g1487
(lp1755
S'-'
aS'-'
asg1489
I00
sbag1
(g1683
g3
(lp1756
g1078
ag5
ag103
atRp1757
(dp1758
g1487
(lp1759
S'-'
aS':'
asg1489
I01
sg1476
F120
sbag1
(g1683
g3
(lp1760
g316
ag87
ag103
atRp1761
(dp1762
g1487
(lp1763
S'-'
aS':'
asg1489
I01
sg1476
F112.5
sbag1
(g1683
g3
(lp1764
g342
ag329
ag316
atRp1765
(dp1766
g1487
(lp1767
S'-'
aS'-'
asg1489
I01
sbag1
(g1683
g3
(lp1768
g949
ag329
ag316
atRp1769
(dp1770
g1487
(lp1771
S'-'
aS'-'
asg1489
I01
sg1476
F109.47122063449069
sbag1
(g1683
g3
(lp1772
g971
ag329
ag316
atRp1773
(dp1774
g1487
(lp1775
S'-'
aS'-'
asg1489
I01
sg1476
F109.47122063449069
sbag1
(g1683
g3
(lp1776
g356
ag342
ag329
atRp1777
(dp1778
g1487
(lp1779
S'-'
aS'-'
asg1489
I01
sg1476
F135
sbag1
(g1683
g3
(lp1780
g392
ag342
ag329
atRp1781
(dp1782
g1487
(lp1783
S'-'
aS'-'
asg1489
I01
sg1476
F112.5
sbag1
(g1683
g3
(lp1784
g905
ag342
ag329
atRp1785
(dp1786
g1487
(lp1787
S'-'
aS'-'
asg1489
I01
sg1476
F112.5
sbag1
(g1683
g3
(lp1788
g949
ag329
ag342
atRp1789
(dp1790
g1487
(lp1791
S'-'
aS'-'
asg1489
I01
sg1476
F109.47122063449069
sbag1
(g1683
g3
(lp1792
g971
ag329
ag342
atRp1793
(dp1794
g1487
(lp1795
S'-'
aS'-'
asg1489
I01
sg1476
F109.47122063449069
sbag1
(g1683
g3
(lp1796
g408
ag392
ag342
atRp1797
(dp1798
g1487
(lp1799
S'-'
aS'-'
asg1489
I01
sg1476
F109.47122063449069
sbag1
(g1683
g3
(lp1800
g844
ag392
ag342
atRp1801
(dp1802
g1487
(lp1803
S'-'
aS'-'
asg1489
I01
sg1476
F109.47122063449069
sbag1
(g1683
g3
(lp1804
g866
ag392
ag342
atRp1805
(dp1806
g1487
(lp1807
S'-'
aS'-'
asg1489
I01
sg1476
F109.47122063449069
sbag1
(g1683
g3
(lp1808
g392
ag342
ag356
atRp1809
(dp1810
g1487
(lp1811
S'-'
aS'-'
asg1489
I01
sg1476
F112.5
sbag1
(g1683
g3
(lp1812
g905
ag342
ag356
atRp1813
(dp1814
g1487
(lp1815
S'-'
aS'-'
asg1489
I01
sg1476
F112.5
sbag1
(g1683
g3
(lp1816
g905
ag342
ag392
atRp1817
(dp1818
g1487
(lp1819
S'-'
aS'-'
asg1489
I01
sg1476
F112.5
sbag1
(g1683
g3
(lp1820
g424
ag408
ag392
atRp1821
(dp1822
g1487
(lp1823
S'-'
aS'-'
asg1489
I01
sg1476
F120
sbag1
(g1683
g3
(lp1824
g558
ag408
ag392
atRp1825
(dp1826
g1487
(lp1827
S'-'
aS'-'
asg1489
I01
sg1476
F120
sbag1
(g1683
g3
(lp1828
g844
ag392
ag408
atRp1829
(dp1830
g1487
(lp1831
S'-'
aS'-'
asg1489
I01
sg1476
F109.47122063449069
sbag1
(g1683
g3
(lp1832
g866
ag392
ag408
atRp1833
(dp1834
g1487
(lp1835
S'-'
aS'-'
asg1489
I01
sg1476
F109.47122063449069
sbag1
(g1683
g3
(lp1836
g440
ag424
ag408
atRp1837
(dp1838
g1487
(lp1839
S':'
aS'-'
asg1489
I00
sbag1
(g1683
g3
(lp1840
g488
ag424
ag408
atRp1841
(dp1842
g1487
(lp1843
S':'
aS'-'
asg1489
I00
sbag1
(g1683
g3
(lp1844
g542
ag558
ag408
atRp1845
(dp1846
g1487
(lp1847
S'-'
aS'-'
asS'must_be'
p1848
F120
sg1489
I01
sg1476
F120
sbag1
(g1683
g3
(lp1849
g574
ag558
ag408
atRp1850
(dp1851
g1487
(lp1852
S'='
aS'-'
asg1848
F120
sg1489
I01
sg1476
F120
sbag1
(g1683
g3
(lp1853
g558
ag408
ag424
atRp1854
(dp1855
g1487
(lp1856
S'-'
aS'-'
asg1489
I01
sg1476
F120
sbag1
(g1683
g3
(lp1857
g456
ag440
ag424
atRp1858
(dp1859
g1487
(lp1860
S':'
aS':'
asg1489
I01
sg1476
F108
sbag1
(g1683
g3
(lp1861
g807
ag440
ag424
atRp1862
(dp1863
g1487
(lp1864
S'-'
aS':'
asg1489
I01
sg1476
F144
sbag1
(g1683
g3
(lp1865
g472
ag488
ag424
atRp1866
(dp1867
g1487
(lp1868
S':'
aS':'
asg1489
I01
sg1476
F108
sbag1
(g1683
g3
(lp1869
g504
ag488
ag424
atRp1870
(dp1871
g1487
(lp1872
S'-'
aS':'
asg1489
I00
sbag1
(g1683
g3
(lp1873
g488
ag424
ag440
atRp1874
(dp1875
g1487
(lp1876
S':'
aS':'
asg1489
I01
sg1476
F108
sbag1
(g1683
g3
(lp1877
g472
ag456
ag440
atRp1878
(dp1879
g1487
(lp1880
S':'
aS':'
asg1489
I01
sg1476
F108
sbag1
(g1683
g3
(lp1881
g778
ag456
ag440
atRp1882
(dp1883
g1487
(lp1884
S'-'
aS':'
asg1489
I01
sg1476
F144
sbag1
(g1683
g3
(lp1885
g807
ag440
ag456
atRp1886
(dp1887
g1487
(lp1888
S'-'
aS':'
asg1489
I01
sg1476
F144
sbag1
(g1683
g3
(lp1889
g488
ag472
ag456
atRp1890
(dp1891
g1487
(lp1892
S':'
aS':'
asg1489
I01
sg1476
F108
sbag1
(g1683
g3
(lp1893
g778
ag456
ag472
atRp1894
(dp1895
g1487
(lp1896
S'-'
aS':'
asg1489
I01
sg1476
F144
sbag1
(g1683
g3
(lp1897
g504
ag488
ag472
atRp1898
(dp1899
g1487
(lp1900
S'-'
aS':'
asg1489
I00
sbag1
(g1683
g3
(lp1901
g520
ag504
ag488
atRp1902
(dp1903
g1487
(lp1904
S'='
aS'-'
asg1848
F120
sg1489
I01
sg1476
F120
sbag1
(g1683
g3
(lp1905
g542
ag504
ag488
atRp1906
(dp1907
g1487
(lp1908
S'-'
aS'-'
asg1848
F120
sg1489
I01
sg1476
F120
sbag1
(g1683
g3
(lp1909
g558
ag542
ag504
atRp1910
(dp1911
g1487
(lp1912
S'-'
aS'-'
asg1489
I01
sg1476
F120
sbag1
(g1683
g3
(lp1913
g708
ag542
ag504
atRp1914
(dp1915
g1487
(lp1916
S'-'
aS'-'
asg1489
I01
sg1476
F120
sbag1
(g1683
g3
(lp1917
g542
ag504
ag520
atRp1918
(dp1919
g1487
(lp1920
S'-'
aS'='
asg1848
F120
sg1489
I01
sg1476
F120
sbag1
(g1683
g3
(lp1921
g574
ag558
ag542
atRp1922
(dp1923
g1487
(lp1924
S'='
aS'-'
asg1848
F120
sg1489
I01
sg1476
F120
sbag1
(g1683
g3
(lp1925
g724
ag708
ag542
atRp1926
(dp1927
g1487
(lp1928
S'-'
aS'-'
asg1489
I01
sg1476
F109.47122063449069
sbag1
(g1683
g3
(lp1929
g708
ag542
ag558
atRp1930
(dp1931
g1487
(lp1932
S'-'
aS'-'
asg1489
I01
sg1476
F120
sbag1
(g1683
g3
(lp1933
g971
ag329
ag949
atRp1934
(dp1935
g1487
(lp1936
S'-'
aS'-'
asg1489
I01
sg1476
F109.47122063449069
sbag1
(g1683
g3
(lp1937
g866
ag392
ag844
atRp1938
(dp1939
g1487
(lp1940
S'-'
aS'-'
asg1489
I01
sg1476
F109.47122063449069
sbatRp1941
sS'dihedrals'
p1942
g1
(g1479
g3
(lp1943
g1
(celbow.chemistry.DihedralClass
DihedralClass
p1944
g3
(lp1945
g71
ag55
ag39
ag5
atRp1946
(dp1947
g1487
(lp1948
S':'
aS':'
aS':'
asg1489
I01
sg1476
I0
sbag1
(g1944
g3
(lp1949
g1025
ag55
ag39
ag5
atRp1950
(dp1951
g1487
(lp1952
S'-'
aS':'
aS':'
asg1489
I01
sg1476
F180
sbag1
(g1944
g3
(lp1953
g71
ag87
ag103
ag5
atRp1954
(dp1955
g1487
(lp1956
S':'
aS':'
aS':'
asg1489
I01
sg1476
I0
sbag1
(g1944
g3
(lp1957
g316
ag87
ag103
ag5
atRp1958
(dp1959
g1487
(lp1960
S'-'
aS':'
aS':'
asg1489
I00
sbag1
(g1944
g3
(lp1961
g87
ag103
ag5
ag39
atRp1962
(dp1963
g1487
(lp1964
S':'
aS':'
aS':'
asg1489
I01
sg1476
I0
sbag1
(g1944
g3
(lp1965
g119
ag103
ag5
ag39
atRp1966
(dp1967
g1487
(lp1968
S'-'
aS':'
aS':'
asg1489
I01
sg1476
F180
sbag1
(g1944
g3
(lp1969
g87
ag71
ag55
ag39
atRp1970
(dp1971
g1487
(lp1972
S':'
aS':'
aS':'
asg1489
I01
sg1476
I0
sbag1
(g1944
g3
(lp1973
g356
ag71
ag55
ag39
atRp1974
(dp1975
g1487
(lp1976
S'-'
aS':'
aS':'
asg1489
I00
sbag1
(g1944
g3
(lp1977
g103
ag5
ag39
ag55
atRp1978
(dp1979
g1487
(lp1980
S':'
aS':'
aS':'
asg1489
I01
sg1476
I0
sbag1
(g1944
g3
(lp1981
g1078
ag5
ag39
ag55
atRp1982
(dp1983
g1487
(lp1984
S'-'
aS':'
aS':'
asg1489
I01
sg1476
F180
sbag1
(g1944
g3
(lp1985
g103
ag87
ag71
ag55
atRp1986
(dp1987
g1487
(lp1988
S':'
aS':'
aS':'
asg1489
I01
sg1476
I0
sbag1
(g1944
g3
(lp1989
g316
ag87
ag71
ag55
atRp1990
(dp1991
g1487
(lp1992
S'-'
aS':'
aS':'
asg1489
I00
sbag1
(g1944
g3
(lp1993
g342
ag356
ag71
ag55
atRp1994
(dp1995
g1487
(lp1996
S'-'
aS'-'
aS':'
asg1489
I00
sbag1
(g1944
g3
(lp1997
g1051
ag39
ag55
ag71
atRp1998
(dp1999
g1487
(lp2000
S'-'
aS':'
aS':'
asg1489
I01
sg1476
F180
sbag1
(g1944
g3
(lp2001
g119
ag103
ag87
ag71
atRp2002
(dp2003
g1487
(lp2004
S'-'
aS':'
aS':'
asg1489
I01
sg1476
F180
sbag1
(g1944
g3
(lp2005
g329
ag316
ag87
ag71
atRp2006
(dp2007
g1487
(lp2008
S'-'
aS'-'
aS':'
asg1489
I00
sbag1
(g1944
g3
(lp2009
g329
ag342
ag356
ag71
atRp2010
(dp2011
g1487
(lp2012
S'-'
aS'-'
aS'-'
asg1489
I00
sbag1
(g1944
g3
(lp2013
g392
ag342
ag356
ag71
atRp2014
(dp2015
g1487
(lp2016
S'-'
aS'-'
aS'-'
asg1489
I00
sbag1
(g1944
g3
(lp2017
g905
ag342
ag356
ag71
atRp2018
(dp2019
g1487
(lp2020
S'-'
aS'-'
aS'-'
asg1489
I00
sbag1
(g1944
g3
(lp2021
g1025
ag55
ag71
ag87
atRp2022
(dp2023
g1487
(lp2024
S'-'
aS':'
aS':'
asg1489
I01
sg1476
F180
sbag1
(g1944
g3
(lp2025
g342
ag356
ag71
ag87
atRp2026
(dp2027
g1487
(lp2028
S'-'
aS'-'
aS':'
asg1489
I00
sbag1
(g1944
g3
(lp2029
g1078
ag5
ag103
ag87
atRp2030
(dp2031
g1487
(lp2032
S'-'
aS':'
aS':'
asg1489
I01
sg1476
F180
sbag1
(g1944
g3
(lp2033
g342
ag329
ag316
ag87
atRp2034
(dp2035
g1487
(lp2036
S'-'
aS'-'
aS'-'
asg1489
I00
sbag1
(g1944
g3
(lp2037
g949
ag329
ag316
ag87
atRp2038
(dp2039
g1487
(lp2040
S'-'
aS'-'
aS'-'
asg1489
I00
sbag1
(g1944
g3
(lp2041
g971
ag329
ag316
ag87
atRp2042
(dp2043
g1487
(lp2044
S'-'
aS'-'
aS'-'
asg1489
I00
sbag1
(g1944
g3
(lp2045
g1051
ag39
ag5
ag103
atRp2046
(dp2047
g1487
(lp2048
S'-'
aS':'
aS':'
asg1489
I01
sg1476
F180
sbag1
(g1944
g3
(lp2049
g356
ag71
ag87
ag103
atRp2050
(dp2051
g1487
(lp2052
S'-'
aS':'
aS':'
asg1489
I00
sbag1
(g1944
g3
(lp2053
g329
ag316
ag87
ag103
atRp2054
(dp2055
g1487
(lp2056
S'-'
aS'-'
aS':'
asg1489
I00
sbag1
(g1944
g3
(lp2057
g356
ag71
ag87
ag316
atRp2058
(dp2059
g1487
(lp2060
S'-'
aS':'
aS'-'
asg1489
I00
sbag1
(g1944
g3
(lp2061
g119
ag103
ag87
ag316
atRp2062
(dp2063
g1487
(lp2064
S'-'
aS':'
aS'-'
asg1489
I00
sbag1
(g1944
g3
(lp2065
g356
ag342
ag329
ag316
atRp2066
(dp2067
g1487
(lp2068
S'-'
aS'-'
aS'-'
asg1489
I00
sbag1
(g1944
g3
(lp2069
g392
ag342
ag329
ag316
atRp2070
(dp2071
g1487
(lp2072
S'-'
aS'-'
aS'-'
asg1489
I00
sbag1
(g1944
g3
(lp2073
g905
ag342
ag329
ag316
atRp2074
(dp2075
g1487
(lp2076
S'-'
aS'-'
aS'-'
asg1489
I00
sbag1
(g1944
g3
(lp2077
g408
ag392
ag342
ag329
atRp2078
(dp2079
g1487
(lp2080
S'-'
aS'-'
aS'-'
asg1489
I00
sbag1
(g1944
g3
(lp2081
g844
ag392
ag342
ag329
atRp2082
(dp2083
g1487
(lp2084
S'-'
aS'-'
aS'-'
asg1489
I00
sbag1
(g1944
g3
(lp2085
g866
ag392
ag342
ag329
atRp2086
(dp2087
g1487
(lp2088
S'-'
aS'-'
aS'-'
asg1489
I00
sbag1
(g1944
g3
(lp2089
g424
ag408
ag392
ag342
atRp2090
(dp2091
g1487
(lp2092
S'-'
aS'-'
aS'-'
asg1489
I00
sbag1
(g1944
g3
(lp2093
g558
ag408
ag392
ag342
atRp2094
(dp2095
g1487
(lp2096
S'-'
aS'-'
aS'-'
asg1489
I00
sbag1
(g1944
g3
(lp2097
g1025
ag55
ag71
ag356
atRp2098
(dp2099
g1487
(lp2100
S'-'
aS':'
aS'-'
asg1489
I00
sbag1
(g1944
g3
(lp2101
g949
ag329
ag342
ag356
atRp2102
(dp2103
g1487
(lp2104
S'-'
aS'-'
aS'-'
asg1489
I00
sbag1
(g1944
g3
(lp2105
g971
ag329
ag342
ag356
atRp2106
(dp2107
g1487
(lp2108
S'-'
aS'-'
aS'-'
asg1489
I00
sbag1
(g1944
g3
(lp2109
g408
ag392
ag342
ag356
atRp2110
(dp2111
g1487
(lp2112
S'-'
aS'-'
aS'-'
asg1489
I00
sbag1
(g1944
g3
(lp2113
g844
ag392
ag342
ag356
atRp2114
(dp2115
g1487
(lp2116
S'-'
aS'-'
aS'-'
asg1489
I00
sbag1
(g1944
g3
(lp2117
g866
ag392
ag342
ag356
atRp2118
(dp2119
g1487
(lp2120
S'-'
aS'-'
aS'-'
asg1489
I00
sbag1
(g1944
g3
(lp2121
g949
ag329
ag342
ag392
atRp2122
(dp2123
g1487
(lp2124
S'-'
aS'-'
aS'-'
asg1489
I00
sbag1
(g1944
g3
(lp2125
g971
ag329
ag342
ag392
atRp2126
(dp2127
g1487
(lp2128
S'-'
aS'-'
aS'-'
asg1489
I00
sbag1
(g1944
g3
(lp2129
g440
ag424
ag408
ag392
atRp2130
(dp2131
g1487
(lp2132
S':'
aS'-'
aS'-'
asg1489
I00
sbag1
(g1944
g3
(lp2133
g488
ag424
ag408
ag392
atRp2134
(dp2135
g1487
(lp2136
S':'
aS'-'
aS'-'
asg1489
I00
sbag1
(g1944
g3
(lp2137
g542
ag558
ag408
ag392
atRp2138
(dp2139
g1487
(lp2140
S'-'
aS'-'
aS'-'
asg1489
I00
sbag1
(g1944
g3
(lp2141
g574
ag558
ag408
ag392
atRp2142
(dp2143
g1487
(lp2144
S'='
aS'-'
aS'-'
asg1489
I00
sbag1
(g1944
g3
(lp2145
g905
ag342
ag392
ag408
atRp2146
(dp2147
g1487
(lp2148
S'-'
aS'-'
aS'-'
asg1489
I00
sbag1
(g1944
g3
(lp2149
g456
ag440
ag424
ag408
atRp2150
(dp2151
g1487
(lp2152
S':'
aS':'
aS'-'
asg1489
I00
sbag1
(g1944
g3
(lp2153
g807
ag440
ag424
ag408
atRp2154
(dp2155
g1487
(lp2156
S'-'
aS':'
aS'-'
asg1489
I00
sbag1
(g1944
g3
(lp2157
g472
ag488
ag424
ag408
atRp2158
(dp2159
g1487
(lp2160
S':'
aS':'
aS'-'
asg1489
I00
sbag1
(g1944
g3
(lp2161
g504
ag488
ag424
ag408
atRp2162
(dp2163
g1487
(lp2164
S'-'
aS':'
aS'-'
asg1489
I00
sbag1
(g1944
g3
(lp2165
g504
ag542
ag558
ag408
atRp2166
(dp2167
g1487
(lp2168
S'-'
aS'-'
aS'-'
asg1489
I00
sbag1
(g1944
g3
(lp2169
g708
ag542
ag558
ag408
atRp2170
(dp2171
g1487
(lp2172
S'-'
aS'-'
aS'-'
asg1489
I00
sbag1
(g1944
g3
(lp2173
g844
ag392
ag408
ag424
atRp2174
(dp2175
g1487
(lp2176
S'-'
aS'-'
aS'-'
asg1489
I00
sbag1
(g1944
g3
(lp2177
g866
ag392
ag408
ag424
atRp2178
(dp2179
g1487
(lp2180
S'-'
aS'-'
aS'-'
asg1489
I00
sbag1
(g1944
g3
(lp2181
g542
ag558
ag408
ag424
atRp2182
(dp2183
g1487
(lp2184
S'-'
aS'-'
aS'-'
asg1489
I00
sbag1
(g1944
g3
(lp2185
g574
ag558
ag408
ag424
atRp2186
(dp2187
g1487
(lp2188
S'='
aS'-'
aS'-'
asg1489
I00
sbag1
(g1944
g3
(lp2189
g472
ag456
ag440
ag424
atRp2190
(dp2191
g1487
(lp2192
S':'
aS':'
aS':'
asg1489
I01
sg1476
I0
sbag1
(g1944
g3
(lp2193
g778
ag456
ag440
ag424
atRp2194
(dp2195
g1487
(lp2196
S'-'
aS':'
aS':'
asg1489
I01
sg1476
F180
sbag1
(g1944
g3
(lp2197
g456
ag472
ag488
ag424
atRp2198
(dp2199
g1487
(lp2200
S':'
aS':'
aS':'
asg1489
I01
sg1476
I0
sbag1
(g1944
g3
(lp2201
g520
ag504
ag488
ag424
atRp2202
(dp2203
g1487
(lp2204
S'='
aS'-'
aS':'
asg1489
I01
sg1476
F180
sbag1
(g1944
g3
(lp2205
g542
ag504
ag488
ag424
atRp2206
(dp2207
g1487
(lp2208
S'-'
aS'-'
aS':'
asg1489
I00
sbag1
(g1944
g3
(lp2209
g558
ag408
ag424
ag440
atRp2210
(dp2211
g1487
(lp2212
S'-'
aS'-'
aS':'
asg1489
I00
sbag1
(g1944
g3
(lp2213
g472
ag488
ag424
ag440
atRp2214
(dp2215
g1487
(lp2216
S':'
aS':'
aS':'
asg1489
I01
sg1476
I0
sbag1
(g1944
g3
(lp2217
g504
ag488
ag424
ag440
atRp2218
(dp2219
g1487
(lp2220
S'-'
aS':'
aS':'
asg1489
I00
sbag1
(g1944
g3
(lp2221
g488
ag472
ag456
ag440
atRp2222
(dp2223
g1487
(lp2224
S':'
aS':'
aS':'
asg1489
I01
sg1476
I0
sbag1
(g1944
g3
(lp2225
g488
ag424
ag440
ag456
atRp2226
(dp2227
g1487
(lp2228
S':'
aS':'
aS':'
asg1489
I01
sg1476
I0
sbag1
(g1944
g3
(lp2229
g504
ag488
ag472
ag456
atRp2230
(dp2231
g1487
(lp2232
S'-'
aS':'
aS':'
asg1489
I00
sbag1
(g1944
g3
(lp2233
g807
ag440
ag456
ag472
atRp2234
(dp2235
g1487
(lp2236
S'-'
aS':'
aS':'
asg1489
I01
sg1476
F180
sbag1
(g1944
g3
(lp2237
g520
ag504
ag488
ag472
atRp2238
(dp2239
g1487
(lp2240
S'='
aS'-'
aS':'
asg1489
I00
sbag1
(g1944
g3
(lp2241
g542
ag504
ag488
ag472
atRp2242
(dp2243
g1487
(lp2244
S'-'
aS'-'
aS':'
asg1489
I00
sbag1
(g1944
g3
(lp2245
g558
ag408
ag424
ag488
atRp2246
(dp2247
g1487
(lp2248
S'-'
aS'-'
aS':'
asg1489
I00
sbag1
(g1944
g3
(lp2249
g807
ag440
ag424
ag488
atRp2250
(dp2251
g1487
(lp2252
S'-'
aS':'
aS':'
asg1489
I00
sbag1
(g1944
g3
(lp2253
g778
ag456
ag472
ag488
atRp2254
(dp2255
g1487
(lp2256
S'-'
aS':'
aS':'
asg1489
I01
sg1476
F180
sbag1
(g1944
g3
(lp2257
g558
ag542
ag504
ag488
atRp2258
(dp2259
g1487
(lp2260
S'-'
aS'-'
aS'-'
asg1489
I00
sbag1
(g1944
g3
(lp2261
g708
ag542
ag504
ag488
atRp2262
(dp2263
g1487
(lp2264
S'-'
aS'-'
aS'-'
asg1489
I00
sbag1
(g1944
g3
(lp2265
g574
ag558
ag542
ag504
atRp2266
(dp2267
g1487
(lp2268
S'='
aS'-'
aS'-'
asg1489
I00
sbag1
(g1944
g3
(lp2269
g724
ag708
ag542
ag504
atRp2270
(dp2271
g1487
(lp2272
S'-'
aS'-'
aS'-'
asg1489
I00
sbag1
(g1944
g3
(lp2273
g558
ag542
ag504
ag520
atRp2274
(dp2275
g1487
(lp2276
S'-'
aS'-'
aS'='
asg1489
I00
sbag1
(g1944
g3
(lp2277
g708
ag542
ag504
ag520
atRp2278
(dp2279
g1487
(lp2280
S'-'
aS'-'
aS'='
asg1489
I00
sbag1
(g1944
g3
(lp2281
g844
ag392
ag408
ag558
atRp2282
(dp2283
g1487
(lp2284
S'-'
aS'-'
aS'-'
asg1489
I00
sbag1
(g1944
g3
(lp2285
g866
ag392
ag408
ag558
atRp2286
(dp2287
g1487
(lp2288
S'-'
aS'-'
aS'-'
asg1489
I00
sbag1
(g1944
g3
(lp2289
g724
ag708
ag542
ag558
atRp2290
(dp2291
g1487
(lp2292
S'-'
aS'-'
aS'-'
asg1489
I00
sbag1
(g1944
g3
(lp2293
g708
ag542
ag558
ag574
atRp2294
(dp2295
g1487
(lp2296
S'-'
aS'-'
aS'='
asg1489
I00
sbag1
(g1944
g3
(lp2297
g1051
ag39
ag5
ag1078
atRp2298
(dp2299
g1487
(lp2300
S'-'
aS':'
aS'-'
asg1489
I00
sbag1
(g1944
g3
(lp2301
g119
ag103
ag5
ag1078
atRp2302
(dp2303
g1487
(lp2304
S'-'
aS':'
aS'-'
asg1489
I00
sbag1
(g1944
g3
(lp2305
g1025
ag55
ag39
ag1051
atRp2306
(dp2307
g1487
(lp2308
S'-'
aS':'
aS'-'
asg1489
I00
sbag1
(g1944
g3
(lp2309
g905
ag342
ag329
ag949
atRp2310
(dp2311
g1487
(lp2312
S'-'
aS'-'
aS'-'
asg1489
I00
sbag1
(g1944
g3
(lp2313
g905
ag342
ag329
ag971
atRp2314
(dp2315
g1487
(lp2316
S'-'
aS'-'
aS'-'
asg1489
I00
sbag1
(g1944
g3
(lp2317
g844
ag392
ag342
ag905
atRp2318
(dp2319
g1487
(lp2320
S'-'
aS'-'
aS'-'
asg1489
I00
sbag1
(g1944
g3
(lp2321
g866
ag392
ag342
ag905
atRp2322
(dp2323
g1487
(lp2324
S'-'
aS'-'
aS'-'
asg1489
I00
sbag1
(g1944
g3
(lp2325
g778
ag456
ag440
ag807
atRp2326
(dp2327
g1487
(lp2328
S'-'
aS':'
aS'-'
asg1489
I00
sbatRp2329
sg1212
I01
sg1213
(dp2330
g1215
(dp2331
g1217
F0.25
sg1218
I50
ssg1219
(dp2332
g1217
F1
sg1218
F100
ssg1221
(dp2333
g1217
I10
sg1218
F100
ssg1223
(dp2334
g1225
F0.10000000000000001
sg1226
F100
sg1217
F1.5
sg167
F50
sg1227
F0.25
sg1228
F0.20000000000000001
ssg1229
(dp2335
g1231
F10
sg1217
F2
sg1233
F10
sg1232
F1
sg1218
F200
ssg1234
(dp2336
g1218
F100
sssS'input_volume'
p2337
F-2.5110833783732081
sS'CIF_three_letter_code'
p2338
S'R3Z'
p2339
sg1247
I01
sS'chiral_atom'
p2340
g342
sS'zmatrix_class'
p2341
g1
(celbow.chemistry.ZMatrixClass
ZMatrixClass
p2342
g3
(lp2343
g1
(celbow.chemistry.ZMatrixClass
ZMatrixLine
p2344
g3
(lp2345
g329
atRp2346
(dp2347
S'bond_index'
p2348
I2
sS'dihedral_index'
p2349
I6
sS'variable_set'
p2350
I00
sS'variable'
p2351
(lp2352
I00
aI00
aI00
asS'ring'
p2353
I01
sS'angle_index'
p2354
I4
sg1476
Nsbag1
(g2344
g3
(lp2355
g342
ag329
aF1.527126
atRp2356
(dp2357
g2348
I2
sg2349
I6
sg2350
I00
sg2351
(lp2358
I00
aI00
aI00
asg2353
I01
sg2354
I4
sg1476
F1.527126
sbag1
(g2344
g3
(lp2359
g356
ag342
aF1.398717
ag329
aF109.47122063449069
atRp2360
(dp2361
g2348
I2
sg2349
I6
sg2350
I00
sg2351
(lp2362
I00
aI00
aI00
asg2353
I01
sg2354
I4
sg1476
F1.398717
sbag1
(g2344
g3
(lp2363
g392
ag342
aF1.5700709974921359
ag329
aF108.71095326491218
ag356
aF120.57781014987941
atRp2364
(dp2365
S'added_atom'
p2366
I00
sg2350
I01
sg2354
I4
sg2348
I2
sg2349
I6
sg2351
(lp2367
I00
aI00
aI00
asg2353
I00
sg1476
F1.5700709974921359
sbag1
(g2344
g3
(lp2368
g905
ag342
aF1.0833090000000001
ag329
aF108.76016963196552
ag356
aF-120.68672213450766
atRp2369
(dp2370
g2366
I00
sg2350
I01
sg2354
I4
sg2348
I2
sg2349
I6
sg2351
(lp2371
I00
aI00
aI00
asg2353
I00
sg1476
F1.0833090000000001
sbatRp2372
(dp2373
g1212
I01
sg1213
g2330
sg1477
g1471
sg1478
g1604
sg1247
I01
sS'atoms'
p2374
(lp2375
g329
ag342
ag356
ag392
ag905
asS'restraint_class'
p2376
g1416
sg1681
g1941
sS'use_parent_energise'
p2377
I01
sg1942
g2329
sbsg2376
g1416
sS'original_order'
p2378
(lp2379
g905
ag342
ag329
ag356
ag392
asbssS'ring_atom_lists'
p2380
(lp2381
(lp2382
S'1'
aS'6'
aS'5'
aS'4'
aS'3'
aS'2'
aa(lp2383
S'4'
aS'10'
p2384
aS'9'
aS'8'
aS'7'
aS'5'
aa(lp2385
S'12'
p2386
aS'21'
p2387
aS'20'
p2388
aS'18'
p2389
aS'17'
p2390
aS'13'
p2391
aa(lp2392
S'13'
p2393
aS'17'
p2394
aS'16'
p2395
aS'15'
p2396
aS'14'
p2397
aasS'invisible_plane'
p2398
g1
(celbow.chemistry.PeptideClass
PeptideClass
p2399
g3
(lp2400
g2202
atRp2401
(dp2402
g2376
g1
(g1388
g1389
(dtRp2403
(dp2404
g1426
Nsg1418
(dp2405
sg1433
I00
sg1420
(lp2406
sg1424
(dp2407
sbsS'dihedral_const_var_type'
p2408
(lp2409
I0
aI0
asbsS'rotation_step'
p2410
I10
sg1213
g2330
sS'mixed_messages'
p2411
I01
sS'EnergyTerms'
p2412
Nsg2338
g2339
sS'RotationSubUnits'
p2413
(dp2414
(I9
I11
tp2415
(lp2416
(ielbow.utilities.sets
Set
p2417
(dp2418
S'dict'
p2419
(dp2420
g103
I1
sg87
I1
sg316
I1
sg905
I1
sg1025
I1
sg1051
I1
sg71
I1
sg329
I1
sg55
I1
sg39
I1
sg119
I1
sg971
I1
sg356
I1
sg949
I1
sg5
I1
sg1078
I1
ssba(ielbow.utilities.sets
Set
p2421
(dp2422
g2419
(dp2423
g778
I1
sg844
I1
sg408
I1
sg866
I1
sg724
I1
sg807
I1
sg520
I1
sg558
I1
sg574
I1
sg456
I1
sg472
I1
sg504
I1
sg440
I1
sg708
I1
sg424
I1
sg488
I1
sg542
I1
ssbas(I11
I12
tp2424
(lp2425
(ielbow.utilities.sets
Set
p2426
(dp2427
g2419
(dp2428
g103
I1
sg844
I1
sg866
I1
sg87
I1
sg316
I1
sg905
I1
sg1025
I1
sg1051
I1
sg71
I1
sg329
I1
sg55
I1
sg39
I1
sg119
I1
sg971
I1
sg949
I1
sg356
I1
sg1078
I1
sg5
I1
sg342
I1
ssba(ielbow.utilities.sets
Set
p2429
(dp2430
g2419
(dp2431
g778
I1
sg708
I1
sg542
I1
sg724
I1
sg807
I1
sg520
I1
sg558
I1
sg574
I1
sg456
I1
sg472
I1
sg504
I1
sg440
I1
sg424
I1
sg488
I1
ssbassS'filename_preamble'
p2432
g1460
sS'ring_restraint'
p2433
g1
(celbow.chemistry.RingTopologyMixins
empty_dict
p2434
g1389
(dp2435
I1
g1
(g1388
g1389
(dp2436
(I14
I15
I16
I17
tp2437
(lp2438
F0
aF10
aI0
as(I14
I15
I16
tp2439
(lp2440
F108
aF2
asI12
(F1.0904414948326415
F0.70717695221379606
F2.0739676008180221
tp2441
sI13
(F0.68008795882414463
F0.25536638899730585
F0.73708800202733116
tp2442
sI14
(F1.354357615150938
F0.39810710439992403
F-0.73360094270137233
tp2443
sI15
(F0.45415477228352769
F-0.20322585171672911
F-1.7024410913433226
tp2444
sI16
(F-0.78828360778964124
F-0.7382713630076857
F-0.93169689454247229
tp2445
sI17
(F-0.56637116312778057
F-0.40795139548951082
F0.60212053883680272
tp2446
sI18
(F-1.4864334341883563
F-0.45818054930089236
F1.7976421353678098
tp2447
s(I21
I12
I13
tp2448
(lp2449
F120
aF2
asI20
(F-1.1689383849290345
F0.31859299846595862
F2.979394745098594
tp2450
sI21
(F0.31726795324718382
F0.28097072193003381
F3.2630953263438647
tp2451
s(I13
I17
I18
tp2452
(lp2453
F120
aF2
as(I17
I13
I14
tp2454
(lp2455
F108
aF2
as(I16
I17
tp2456
(lp2457
F1.725176
aF200
as(I15
I16
I17
tp2458
(lp2459
F108
aF2
as(I20
I21
I12
tp2460
(lp2461
F113
aF10
as(I14
I12
tp2462
(lp2463
F4
aF10
aF1
as(I12
I13
tp2464
(lp2465
F1.451533
aF200
as(I16
I17
I13
I14
tp2466
(lp2467
F0
aF10
aI0
as(I13
I14
I15
I16
tp2468
(lp2469
F0
aF10
aI0
as(I15
I14
I13
I12
tp2470
(lp2471
F180
aF1
aI0
as(I21
I12
tp2472
(lp2473
F1.451533
aF200
as(I21
I12
I13
I14
tp2474
(lp2475
F180
aF1
aI0
as(I18
I20
tp2476
(lp2477
F1.451533
aF200
as(I20
I18
I17
I13
tp2478
(lp2479
F0
aF1
aI0
as(I17
I13
I14
I15
tp2480
(lp2481
F0
aF10
aI0
as(I14
I15
tp2482
(lp2483
F1.385372
aF200
as(I17
I13
tp2484
(lp2485
F1.385372
aF200
as(I15
I16
I17
I13
tp2486
(lp2487
F0
aF10
aI0
as(I16
I17
I13
tp2488
(lp2489
F108
aF2
as(I17
I18
tp2490
(lp2491
F1.527126
aF200
as(I18
I20
I21
tp2492
(lp2493
F113
aF10
as(I13
I14
tp2494
(lp2495
F1.385372
aF200
as(I12
I13
I17
tp2496
(lp2497
F120
aF2
as(I16
I18
tp2498
(lp2499
F4
aF10
aF1
as(I20
I21
tp2500
(lp2501
F1.451533
aF200
as(I17
I18
I20
tp2502
(lp2503
F120
aF2
as(I17
I13
I12
I16
tp2504
(lp2505
F0
aF1
aI0
as(I18
I20
I21
I12
tp2506
(lp2507
F55
aF1
aI1
a(F-55
tp2508
as(I13
I14
I15
tp2509
(lp2510
F108
aF2
as(I15
I16
tp2511
(lp2512
F1.725176
aF200
as(I18
I17
I13
I12
tp2513
(lp2514
F0
aF1
aI0
astRp2515
(dp2516
g1426
Nsg1418
(dp2517
I12
I0
sI13
I1
sI14
I2
sI15
I3
sI16
I4
sI17
I5
sI18
I6
sI20
I7
sI21
I8
ssg1433
I00
sg1420
(lp2518
sg1424
(dp2519
sbsI2
g1
(g1388
g1389
(dp2520
I1
(F-0.11814856857554663
F0.58104687079112483
F-1.6680478202084219
tp2521
sI2
(F1.2351073036242703
F0.65061021728076363
F-1.3177493590420375
tp2522
sI3
(F1.6398015638683472
F0.31894079064218789
F-0.021878877688755516
tp2523
sI4
(F0.69033278364639727
F-0.085985737259163364
F0.93953576978845077
tp2524
sI5
(F-0.6659570347260918
F-0.15520217693638516
F0.58806093567220985
tp2525
sI6
(F-1.0654979417689574
F0.17986085188173068
F-0.72210514400527659
tp2526
sI7
(F-1.6494294853998659
F-0.22342090182764715
F1.6256832560507166
tp2527
s(I5
I6
tp2528
(lp2529
F1.385372
aF200
asI9
(F0.1058821499673841
F-0.71231883559952269
F3.2194246229773316
tp2530
sI10
(F1.0628650393828709
F-0.28042548990988403
F2.3083377045794005
tp2531
s(I10
I4
I5
tp2532
(lp2533
F120
aF2
as(I8
I9
tp2534
(lp2535
F1.527126
aF200
as(I5
I7
I8
tp2536
(lp2537
F120
aF2
as(I6
I1
I2
I3
tp2538
(lp2539
F0
aF10
aI0
as(I5
I6
I1
I2
tp2540
(lp2541
F0
aF10
aI0
as(I2
I3
I4
I5
tp2542
(lp2543
F0
aF10
aI0
as(I1
I2
tp2544
(lp2545
F1.385372
aF200
as(I6
I7
tp2546
(lp2547
F4
aF10
aF1
as(I7
I8
I9
I10
tp2548
(lp2549
F55
aF1
aI1
ag2508
as(I6
I1
I2
tp2550
(lp2551
F120
aF2
as(I4
I5
I6
I1
tp2552
(lp2553
F0
aF10
aI0
as(I10
I4
tp2554
(lp2555
F1.398717
aF200
as(I4
I5
tp2556
(lp2557
F1.385372
aF200
as(I7
I8
I9
tp2558
(lp2559
F113
aF10
as(I1
I2
I3
tp2560
(lp2561
F120
aF2
as(I9
I10
tp2562
(lp2563
F1.398717
aF200
as(I2
I3
tp2564
(lp2565
F1.385372
aF200
as(I5
I6
I1
tp2566
(lp2567
F120
aF2
as(I4
I5
I6
tp2568
(lp2569
F120
aF2
as(I8
I9
I10
tp2570
(lp2571
F113
aF10
as(I4
I5
I7
tp2572
(lp2573
F120
aF2
as(I1
I2
I3
I4
tp2574
(lp2575
F0
aF10
aI0
as(I9
I10
I4
tp2576
(lp2577
F120
aF2
as(I7
I8
tp2578
(lp2579
F1.398717
aF200
as(I6
I1
tp2580
(lp2581
F1.385372
aF200
as(I5
I7
tp2582
(lp2583
F1.398717
aF200
as(I3
I4
I5
I6
tp2584
(lp2585
F0
aF10
aI0
asI8
(F-1.259331558939107
F-0.031917674867656953
F2.945920167185105
tp2586
s(I3
I4
I5
tp2587
(lp2588
F120
aF2
as(I2
I3
I4
tp2589
(lp2590
F120
aF2
as(I3
I4
tp2591
(lp2592
F1.385372
aF200
as(I3
I10
tp2593
(lp2594
F4
aF10
aF1
astRp2595
(dp2596
g1426
Nsg1418
(dp2597
I1
I0
sI2
I1
sI3
I2
sI4
I3
sI5
I4
sI6
I5
sI7
I6
sI8
I7
sI9
I8
sI10
I9
ssg1433
I00
sg1420
(lp2598
sg1424
(dp2599
sbstRp2600
sS'loop_class'
p2601
(lp2602
sS'CIF_id'
p2603
S'R3Z'
p2604
sg142
I0
sS'residue_name'
p2605
g1460
sS'temp_pdb'
p2606
S'/tmp/tmp2zc2Zh'
p2607
sS'ring_dihedrals'
p2608
(lp2609
g1946
ag1954
ag1962
ag1970
ag1978
ag1986
ag2190
ag2198
ag2214
ag2222
ag2226
asS'unequil_angles'
p2610
(lp2611
g1725
ag1761
ag1837
ag1898
asS'maximum_bond_length'
p2612
F3
sS'peptide_class'
p2613
g1
(g2399
g3
(ltRp2614
(dp2615
g2376
g1
(g1388
g1389
(dtRp2616
(dp2617
g1426
Nsg1418
(dp2618
sg1433
I00
sg1420
(lp2619
sg1424
(dp2620
sbsg2408
(lp2621
sbsg1250
(dp2622
g1229
(dp2623
g1217
(dp2624
I3
F60
sI4
F90
sI5
F106
sI6
F113
ssg1254
(dp2625
I5
(lp2626
F25
aI10
asI6
(lp2627
F55
aI1
assssS'molecule_number'
p2628
I0
sS'ring_zmatrix'
p2629
(dp2630
I1
g1
(g2342
g3
(lp2631
g1
(g2344
g3
(lp2632
g408
ag392
aF1.4624412812166152
ag342
aF109.48923035864213
ag356
aI180
atRp2633
(dp2634
g2366
I01
sg2350
I01
sg2354
I4
sg2348
I2
sg2349
I6
sg2351
(lp2635
I00
aI00
aI00
asg2353
I01
sg1476
F1.4624412812166152
sbag1
(g2344
g3
(lp2636
g424
ag408
aF1.4672324571035935
ag392
aF119.86785716435344
ag342
aF74.928546868313688
atRp2637
(dp2638
g2366
I01
sg2350
I01
sg2354
I4
sg2348
I2
sg2349
I6
sg2351
(lp2639
I00
aI00
aI00
asg2353
I01
sg1476
F1.4672324571035935
sbag1
(g2344
g3
(lp2640
g440
ag424
aF1.6064314483423028
ag408
aF131.44984679877737
ag392
aI360
atRp2641
(dp2642
g2366
I01
sg2350
I01
sg2354
I4
sg2348
I2
sg2349
I6
sg2351
(lp2643
I00
aI00
aI00
asg2353
I01
sg1476
F1.6064314483423028
sbag1
(g2344
g3
(lp2644
g456
ag440
aF1.4470230836035154
ag424
aF108.30873926849483
ag408
aI180
atRp2645
(dp2646
g2366
I01
sg2350
I01
sg2354
I4
sg2348
I2
sg2349
I6
sg2351
(lp2647
I00
aI00
aI00
asg2353
I01
sg1476
F1.4470230836035154
sbag1
(g2344
g3
(lp2648
g472
ag456
aF1.5502334025045268
ag440
aF107.86874330016997
ag424
aI0
atRp2649
(dp2650
g2366
I01
sg2350
I01
sg2354
I4
sg2348
I2
sg2349
I6
sg2351
(lp2651
I00
aI00
aI00
asg2353
I01
sg1476
F1.5502334025045268
sbag1
(g2344
g3
(lp2652
g488
ag424
aF1.4354620080952232
ag408
aF120.16291250668085
ag472
aI0
atRp2653
(dp2654
g2366
I01
sg2350
I01
sg2354
I4
sg2348
I2
sg2349
I6
sg2351
(lp2655
I00
aI00
aI00
asg2353
I01
sg1476
F1.4354620080952232
sbag1
(g2344
g3
(lp2656
g504
ag488
aF1.5062802746900212
ag424
aF120.10997850988358
ag408
aI0
atRp2657
(dp2658
g2366
I01
sg2350
I01
sg2354
I4
sg2348
I2
sg2349
I6
sg2351
(lp2659
I00
aI00
aI00
asg2353
I01
sg1476
F1.5062802746900212
sbag1
(g2344
g3
(lp2660
g542
ag504
aF1.4458762374099798
ag488
aF120.12291611722037
ag424
aI360
atRp2661
(dp2662
g2366
I01
sg2350
I01
sg2354
I4
sg2348
I2
sg2349
I6
sg2351
(lp2663
I00
aI00
aI00
asg2353
I01
sg1476
F1.4458762374099798
sbag1
(g2344
g3
(lp2664
g558
ag408
aF1.4823394960232408
ag424
aF120.17413408409381
ag440
aI180
atRp2665
(dp2666
g2366
I01
sg2350
I01
sg2354
I4
sg2348
I2
sg2349
I6
sg2351
(lp2667
I00
aI00
aI00
asg2353
I01
sg1476
F1.4823394960232408
sbatRp2668
(dp2669
g1212
I01
sg1213
g2330
sg1477
g1105
sg1478
g1604
sg1247
I01
sg2374
(lp2670
g408
ag424
ag440
ag456
ag472
ag488
ag504
ag542
ag558
asg2376
g2515
sg1681
g1941
sg2377
I01
sg1942
g2329
sbsI2
g1
(g2342
g3
(lp2671
g1
(g2344
g3
(lp2672
g5
atRp2673
(dp2674
g2366
I00
sg2350
I01
sg2354
I4
sg2348
I2
sg2349
I6
sg2351
(lp2675
I00
aI00
aI00
asg2353
I01
sg1476
Nsbag1
(g2344
g3
(lp2676
g39
ag5
aF1.4116714481627792
atRp2677
(dp2678
g2366
I00
sg2350
I01
sg2354
I4
sg2348
I2
sg2349
I6
sg2351
(lp2679
I00
aI00
aI00
asg2353
I01
sg1476
F1.4116714481627792
sbag1
(g2344
g3
(lp2680
g55
ag39
aF1.3998271248300631
ag5
aF120.05829212630894
atRp2681
(dp2682
g2366
I00
sg2350
I01
sg2354
I4
sg2348
I2
sg2349
I6
sg2351
(lp2683
I00
aI00
aI00
asg2353
I01
sg1476
F1.3998271248300631
sbag1
(g2344
g3
(lp2684
g71
ag55
aF1.3961294081695119
ag39
aF120.0109137281552
ag5
aI0
atRp2685
(dp2686
g2366
I00
sg2350
I01
sg2354
I4
sg2348
I2
sg2349
I6
sg2351
(lp2687
I00
aI00
aI00
asg2353
I01
sg1476
F1.3961294081695119
sbag1
(g2344
g3
(lp2688
g87
ag71
aF1.4204936110006754
ag55
aF119.92475727272397
ag39
aI0
atRp2689
(dp2690
g2366
I00
sg2350
I01
sg2354
I4
sg2348
I2
sg2349
I6
sg2351
(lp2691
I00
aI00
aI00
asg2353
I01
sg1476
F1.4204936110006754
sbag1
(g2344
g3
(lp2692
g103
ag5
aF1.3993437298702733
ag39
aF120.05919692714002
ag55
aI0
atRp2693
(dp2694
g2366
I00
sg2350
I01
sg2354
I4
sg2348
I2
sg2349
I6
sg2351
(lp2695
I00
aI00
aI00
asg2353
I01
sg1476
F1.3993437298702733
sbag1
(g2344
g3
(lp2696
g316
ag87
aF1.4525872805002935
ag71
aF118.63735902964306
ag55
aI180
atRp2697
(dp2698
g2366
I00
sg2350
I01
sg2354
I4
sg2348
I2
sg2349
I6
sg2351
(lp2699
I00
aI00
aI00
asg2353
I01
sg1476
F1.4525872805002935
sbag1
(g2344
g3
(lp2700
g356
ag71
aF1.4450417480300581
ag55
aF121.37196493216105
ag39
aI180
atRp2701
(dp2702
g2366
I00
sg2350
I01
sg2354
I4
sg2348
I2
sg2349
I6
sg2351
(lp2703
I00
aI00
aI00
asg2353
I01
sg1476
F1.4450417480300581
sbag1
(g2344
g3
(lp2704
g329
ag316
aF1.3568703339266752
ag87
aF118.50790150415278
ag71
aI0
atRp2705
(dp2706
g2366
I00
sg2350
I01
sg2354
I4
sg2348
I2
sg2349
I6
sg2351
(lp2707
I00
aI00
aI00
asg2353
I01
sg1476
F1.3568703339266752
sbag1
(g2344
g3
(lp2708
g342
ag356
aF1.3684018671725913
ag71
aF118.47483113934713
ag55
aI180
atRp2709
(dp2710
g2366
I00
sg2350
I01
sg2354
I4
sg2348
I2
sg2349
I6
sg2351
(lp2711
I00
aI00
aI00
asg2353
I01
sg1476
F1.3684018671725913
sbatRp2712
(dp2713
g1212
I01
sg1213
g2330
sg1477
g1105
sg1478
g1604
sg1247
I01
sg2374
(lp2714
g5
ag39
ag55
ag71
ag87
ag103
ag316
ag356
ag329
ag342
asg2376
g2595
sg1681
g1941
sg2377
I01
sg1942
g2329
sbssS'chiral_zmatrix'
p2715
(dp2716
I1
g2372
ssS'trace'
p2717
(dp2718
I0
(dp2719
S'H'
I1
sssg1478
g1604
sS'start_time'
p2720
F1558011281.360002
sS'UseCIFWeights'
p2721
I01
sg1239
(lp2722
sS'ring_class'
p2723
(lp2724
g1
(g1111
g3
(lp2725
(lp2726
g424
ag488
ag472
ag456
ag440
aa(lp2727
g408
ag558
ag542
ag504
ag488
ag424
aatRp2728
(dp2729
g1249
I7
sg1239
(lp2730
sg1243
(dp2731
I0
(lp2732
I1
asI1
(lp2733
I0
assg1237
(dp2734
I0
(lp2735
(lp2736
asI1
(lp2737
(lp2738
I1
aa(lp2739
I0
aasI2
(lp2740
(lp2741
I0
aI1
aassS'allowed'
p2742
(dp2743
(tI01
ssS'ideal_ring_angles'
p2744
(lp2745
g1
(celbow.chemistry.RingClass
RingCircle
p2746
g3
(lp2747
(ielbow.chemistry.RingClass
empty
p2748
(dp2749
g138
I13
sg9
(ielbow.chemistry.xyzClass
xyzClass
p2750
(dp2751
g12
I1
sg13
F57.295779513082323
sS'y'
F-0.49199999999999999
sS'x'
F-1.4770000000000001
sg14
g428
sS'z'
F0.77400000000000002
sbsg184
I0
sg16
(ielbow.chemistry.xyzClass
xyzClass
p2752
(dp2753
g12
I0
sg13
F57.295779513082323
sS'y'
F-1.1011055363769386
sS'x'
F0.80000000000000004
sg14
g667
sS'z'
F0
sbsg156
S'C'
sg177
S'Y'
sg222
I01
sg29
I01
sg14
(ielbow.chemistry.xyzClass
xyzClass
p2754
(dp2755
g12
I0
sg13
F57.295779513082323
sS'y'
F4.4408920985006262e-16
sS'x'
F-0.00043665060312536585
sg14
(F-0.00043665060312536585
F4.4408920985006262e-16
I0
tp2756
sS'z'
I0
sbsba(ielbow.chemistry.RingClass
empty
p2757
(dp2758
g138
I17
sg9
(ielbow.chemistry.xyzClass
xyzClass
p2759
(dp2760
g12
I1
sg13
F57.295779513082323
sS'y'
F-0.91400000000000003
sS'x'
F-2.5739999999999998
sg14
g492
sS'z'
F0.042999999999999997
sbsg184
I1
sg16
(ielbow.chemistry.xyzClass
xyzClass
p2761
(dp2762
g12
I0
sg13
F57.295779513082323
sS'y'
F0.42058488969530705
sS'x'
F1.2944271909999159
sg14
g661
sS'z'
F0
sbsg156
S'C'
sg177
S'Y'
sg222
I01
sg29
I01
sg14
(ielbow.chemistry.xyzClass
xyzClass
p2763
(dp2764
g12
I0
sg13
F57.295779513082323
sS'y'
I0
sS'x'
F1.385372
sg14
(F1.385372
I0
I0
tp2765
sS'z'
I0
sbsba(ielbow.chemistry.RingClass
empty
p2766
(dp2767
g138
I16
sg9
(ielbow.chemistry.xyzClass
xyzClass
p2768
(dp2769
g12
I1
sg13
F57.295779513082323
sS'y'
F-2.641
sS'x'
F-2.7999999999999998
sg14
g476
sS'z'
F0.28100000000000003
sbsg184
I0
sg16
(ielbow.chemistry.xyzClass
xyzClass
p2770
(dp2771
g12
I0
sg13
F57.295779513082323
sS'y'
F1.3610412933632641
sS'x'
F-2.2204460492503131e-16
sg14
g655
sS'z'
F0
sbsg156
S'S'
sg177
S'Y'
sg222
I01
sg29
I00
sg14
(ielbow.chemistry.xyzClass
xyzClass
p2772
(dp2773
g12
I0
sg13
F57.295779513082323
sS'y'
F1.6645833296736658
sS'x'
F1.8385767766170737
sg14
(F1.8385767766170737
F1.6645833296736658
I0
tp2774
sS'z'
I0
sbsba(ielbow.chemistry.RingClass
empty
p2775
(dp2776
g138
I15
sg9
(ielbow.chemistry.xyzClass
xyzClass
p2777
(dp2778
g12
I1
sg13
F57.295779513082323
sS'y'
F-2.7280000000000002
sS'x'
F-1.454
sg14
g460
sS'z'
F1.3220000000000001
sbsg184
I1
sg16
(ielbow.chemistry.xyzClass
xyzClass
p2779
(dp2780
g12
I0
sg13
F57.295779513082323
sS'y'
F0.42058488969530683
sS'x'
F-1.2944271909999161
sg14
g679
sS'z'
F0
sbsg156
S'C'
sg177
S'Y'
sg222
I01
sg29
I00
sg14
(ielbow.chemistry.xyzClass
xyzClass
p2781
(dp2782
g12
I0
sg13
F57.295779513082323
sS'y'
F2.3276978956030328
sS'x'
F0.24593390910775437
sg14
(F0.24593390910775437
F2.3276978956030328
I0
tp2783
sS'z'
I0
sbsba(ielbow.chemistry.RingClass
empty
p2784
(dp2785
g138
I14
sg9
(ielbow.chemistry.xyzClass
xyzClass
p2786
(dp2787
g12
I1
sg13
F57.295779513082323
sS'y'
F-1.536
sS'x'
F-0.88200000000000001
sg14
g444
sS'z'
F1.4730000000000001
sbsg184
I0
sg16
(ielbow.chemistry.xyzClass
xyzClass
p2788
(dp2789
g12
I0
sg13
F57.295779513082323
sS'y'
F-1.1011055363769389
sS'x'
F-0.80000000000000004
sg14
g673
sS'z'
F0
sbsg156
S'C'
sg177
S'Y'
sg222
I01
sg29
I00
sg14
(ielbow.chemistry.xyzClass
xyzClass
p2790
(dp2791
g12
I0
sg13
F57.295779513082323
sS'y'
F1.2418753145273751
sS'x'
F-0.61444095152579348
sg14
(F-0.61444095152579348
F1.2418753145273751
I0
tp2792
sS'z'
I0
sbsbatRp2793
(dp2794
g1478
(lp2795
F1.385372
aF1.725176
aF1.725176
aF1.385372
aF1.385372
asbag1
(g2746
g3
(lp2796
(ielbow.chemistry.RingClass
empty
p2797
(dp2798
g138
I12
sg9
(ielbow.chemistry.xyzClass
xyzClass
p2799
(dp2800
g12
I1
sg13
F57.295779513082323
sS'y'
F0.86399999999999999
sS'x'
F-1.1279999999999999
sg14
g412
sS'z'
F0.71699999999999997
sbsg184
I0
sg16
(ielbow.chemistry.xyzClass
xyzClass
p2801
(dp2802
g12
I0
sg13
F57.295779513082323
sS'y'
F-1.3856406460551023
sS'x'
F0.80000000000000082
sg14
g608
sS'z'
F0
sbsg156
S'N'
sg222
I01
sg29
I00
sg14
(ielbow.chemistry.xyzClass
xyzClass
p2803
(dp2804
g12
I0
sg13
F57.295779513082323
sS'y'
F-1.1102230246251565e-15
sS'x'
F8.4124411009023348e-05
sg14
(F8.4124411009023348e-05
F-1.1102230246251565e-15
I0
tp2805
sS'z'
I0
sbsba(ielbow.chemistry.RingClass
empty
p2806
(dp2807
g138
I21
sg9
(ielbow.chemistry.xyzClass
xyzClass
p2808
(dp2809
g12
I1
sg13
F57.295779513082323
sS'y'
F1.722
sS'x'
F-1.8460000000000001
sg14
g562
sS'z'
F-0.024
sbsg184
I1
sg16
(ielbow.chemistry.xyzClass
xyzClass
p2810
(dp2811
g12
I0
sg13
F57.295779513082323
sS'y'
F4.4408920985006262e-16
sS'x'
F1.6000000000000005
sg14
g638
sS'z'
F0
sbsg156
S'C'
sg222
I01
sg29
I00
sg14
(ielbow.chemistry.xyzClass
xyzClass
p2812
(dp2813
g12
I0
sg13
F57.295779513082323
sS'y'
I0
sS'x'
F1.451533
sg14
(F1.451533
I0
I0
tp2814
sS'z'
I0
sbsg596
I01
sba(ielbow.chemistry.RingClass
empty
p2815
(dp2816
g138
I20
sg9
(ielbow.chemistry.xyzClass
xyzClass
p2817
(dp2818
g12
I1
sg13
F57.295779513082323
sS'y'
F1.319
sS'x'
F-2.9089999999999998
sg14
g546
sS'z'
F-0.73999999999999999
sbsg184
I0
sg16
(ielbow.chemistry.xyzClass
xyzClass
p2819
(dp2820
g12
I0
sg13
F57.295779513082323
sS'y'
F1.3856406460551023
sS'x'
F0.79999999999999971
sg14
g632
sS'z'
F0
sbsg156
S'N'
sg222
I01
sg29
I00
sg14
(ielbow.chemistry.xyzClass
xyzClass
p2821
(dp2822
g12
I0
sg13
F57.295779513082323
sS'y'
F1.2592265976438453
sS'x'
F2.1735416051255241
sg14
(F2.1735416051255241
F1.2592265976438453
I0
tp2823
sS'z'
I0
sbsba(ielbow.chemistry.RingClass
empty
p2824
(dp2825
g138
I18
sg9
(ielbow.chemistry.xyzClass
xyzClass
p2826
(dp2827
g12
I1
sg13
F57.295779513082323
sS'y'
F0.029999999999999999
sS'x'
F-3.2970000000000002
sg14
g508
sS'z'
F-0.72899999999999998
sbsg184
I1
sg16
(ielbow.chemistry.xyzClass
xyzClass
p2828
(dp2829
g12
I0
sg13
F57.295779513082323
sS'y'
F1.3856406460551018
sS'x'
F-0.8000000000000006
sg14
g626
sS'z'
F0
sbsg156
S'C'
sg222
I01
sg29
I00
sg14
(ielbow.chemistry.xyzClass
xyzClass
p2830
(dp2831
g12
I0
sg13
F57.295779513082323
sS'y'
F2.5020841944005987
sS'x'
F1.4237062603510684
sg14
(F1.4237062603510684
F2.5020841944005987
I0
tp2832
sS'z'
I0
sbsg596
I01
sba(ielbow.chemistry.RingClass
empty
p2833
(dp2834
g138
I17
sg9
(ielbow.chemistry.xyzClass
xyzClass
p2835
(dp2836
g12
I1
sg13
F57.295779513082323
sS'y'
F-0.91400000000000003
sS'x'
F-2.5739999999999998
sg14
g492
sS'z'
F0.042999999999999997
sbsg184
I0
sg16
(ielbow.chemistry.xyzClass
xyzClass
p2837
(dp2838
g12
I0
sg13
F57.295779513082323
sS'y'
F-4.4408920985006262e-16
sS'x'
F-1.6000000000000005
sg14
g620
sS'z'
F0
sbsg156
S'C'
sg177
S'Y'
sg222
I01
sg29
I01
sg14
(ielbow.chemistry.xyzClass
xyzClass
p2839
(dp2840
g12
I0
sg13
F57.295779513082323
sS'y'
F2.4602208196774651
sS'x'
F-0.1028458277654134
sg14
(F-0.1028458277654134
F2.4602208196774651
I0
tp2841
sS'z'
I0
sbsba(ielbow.chemistry.RingClass
empty
p2842
(dp2843
g138
I13
sg9
(ielbow.chemistry.xyzClass
xyzClass
p2844
(dp2845
g12
I1
sg13
F57.295779513082323
sS'y'
F-0.49199999999999999
sS'x'
F-1.4770000000000001
sg14
g428
sS'z'
F0.77400000000000002
sbsg184
I1
sg16
(ielbow.chemistry.xyzClass
xyzClass
p2846
(dp2847
g12
I0
sg13
F57.295779513082323
sS'y'
F-1.3856406460551023
sS'x'
F-0.80000000000000016
sg14
g614
sS'z'
F0
sbsg156
S'C'
sg177
S'Y'
sg222
I01
sg29
I01
sg14
(ielbow.chemistry.xyzClass
xyzClass
p2848
(dp2849
g12
I0
sg13
F57.295779513082323
sS'y'
F1.2387548971729008
sS'x'
F-0.75650979230994453
sg14
(F-0.75650979230994453
F1.2387548971729008
I0
tp2850
sS'z'
I0
sbsbatRp2851
(dp2852
g1478
(lp2853
F1.451533
aF1.451533
aF1.451533
aF1.527126
aF1.385372
aF1.451533
asbasg1212
I01
sg1213
g2330
sg1247
I01
sS'compare_dict'
p2854
(dp2855
(F0.0010452213665804394
F0.81121126957307388
tp2856
(lp2857
I0
aI1
assg1245
(lp2858
I0
aI0
aI0
aF1.5707963267948966
aF1.5707963267948966
aF1.5707963267948966
aI10
aI10
aI10
aF1.5707963267948966
aF1.5707963267948966
aF1.5707963267948966
asg1241
(tsg2376
g2515
sg1236
I00
sg1248
I01
sg1250
g2622
sbag1
(g1111
g3
(lp2859
(lp2860
g5
ag103
ag87
ag71
ag55
ag39
aa(lp2861
g71
ag356
ag342
ag329
ag316
ag87
aatRp2862
(dp2863
g1249
I7
sg1239
(lp2864
sg1243
(dp2865
I0
(lp2866
I1
asI1
(lp2867
I0
assg1237
(dp2868
I0
(lp2869
(lp2870
asI1
(lp2871
(lp2872
I1
aa(lp2873
I0
aasI2
(lp2874
(lp2875
I0
aI1
aassg2742
(dp2876
(tI01
ssg2744
(lp2877
g1
(g2746
g3
(lp2878
(ielbow.chemistry.RingClass
empty
p2879
(dp2880
g138
I1
sg9
(ielbow.chemistry.xyzClass
xyzClass
p2881
(dp2882
g12
I1
sg13
F57.295779513082323
sS'y'
F-1.0569999999999999
sS'x'
F5.2329999999999997
sg14
g15
sS'z'
F-1.2929999999999999
sbsg184
I0
sg16
(ielbow.chemistry.xyzClass
xyzClass
p2883
(dp2884
g12
I0
sg13
F57.295779513082323
sS'y'
F-1.3856406460551023
sS'x'
F0.80000000000000082
sg14
g191
sS'z'
F0
sbsg156
S'C'
sg177
S'Y'
sg222
I01
sg29
I00
sg14
(ielbow.chemistry.xyzClass
xyzClass
p2885
(dp2886
g12
I0
sg13
F57.295779513082323
sS'y'
F1.3856406460551023
sS'x'
F-1.6969203819598516e-16
sg14
(F-1.6969203819598516e-16
F1.3856406460551023
F0.80000000000000093
tp2887
sS'z'
F0.80000000000000093
sbsba(ielbow.chemistry.RingClass
empty
p2888
(dp2889
g138
I6
sg9
(ielbow.chemistry.xyzClass
xyzClass
p2890
(dp2891
g12
I1
sg13
F57.295779513082323
sS'y'
F0.13300000000000001
sS'x'
F5.0579999999999998
sg14
g107
sS'z'
F-0.61099999999999999
sbsg184
I1
sg16
(ielbow.chemistry.xyzClass
xyzClass
p2892
(dp2893
g12
I0
sg13
F57.295779513082323
sS'y'
F4.4408920985006262e-16
sS'x'
F1.6000000000000005
sg14
g221
sS'z'
F0
sbsg156
S'C'
sg177
S'Y'
sg222
I01
sg29
I00
sg14
(ielbow.chemistry.xyzClass
xyzClass
p2894
(dp2895
g12
I0
sg13
F57.295779513082323
sS'y'
F-5.4206095378185085e-16
sS'x'
F6.0384282068523073e-32
sg14
(F6.0384282068523073e-32
F-5.4206095378185085e-16
F1.6000000000000005
tp2896
sS'z'
F1.6000000000000005
sbsba(ielbow.chemistry.RingClass
empty
p2897
(dp2898
g138
I5
sg9
(ielbow.chemistry.xyzClass
xyzClass
p2899
(dp2900
g12
I1
sg13
F57.295779513082323
sS'y'
F0.46000000000000002
sS'x'
F3.8149999999999999
sg14
g91
sS'z'
F-0.089999999999999997
sbsg184
I0
sg16
(ielbow.chemistry.xyzClass
xyzClass
p2901
(dp2902
g12
I0
sg13
F57.295779513082323
sS'y'
F1.3856406460551023
sS'x'
F0.79999999999999971
sg14
g215
sS'z'
F0
sbsg156
S'C'
sg177
S'Y'
sg222
I01
sg29
I01
sg14
(ielbow.chemistry.xyzClass
xyzClass
p2903
(dp2904
g12
I0
sg13
F57.295779513082323
sS'y'
F-1.3856406460551023
sS'x'
F1.6969203819598516e-16
sg14
(F1.6969203819598516e-16
F-1.3856406460551023
F0.7999999999999996
tp2905
sS'z'
F0.7999999999999996
sbsba(ielbow.chemistry.RingClass
empty
p2906
(dp2907
g138
I4
sg9
(ielbow.chemistry.xyzClass
xyzClass
p2908
(dp2909
g12
I1
sg13
F57.295779513082323
sS'y'
F-0.41399999999999998
sS'x'
F2.7469999999999999
sg14
g75
sS'z'
F-0.253
sbsg184
I1
sg16
(ielbow.chemistry.xyzClass
xyzClass
p2910
(dp2911
g12
I0
sg13
F57.295779513082323
sS'y'
F1.3856406460551018
sS'x'
F-0.8000000000000006
sg14
g209
sS'z'
F0
sbsg156
S'C'
sg177
S'Y'
sg222
I01
sg29
I01
sg14
(ielbow.chemistry.xyzClass
xyzClass
p2912
(dp2913
g12
I0
sg13
F57.295779513082323
sS'y'
F-1.3856406460551018
sS'x'
F1.6969203819598511e-16
sg14
(F1.6969203819598511e-16
F-1.3856406460551018
F-0.80000000000000071
tp2914
sS'z'
F-0.80000000000000071
sbsba(ielbow.chemistry.RingClass
empty
p2915
(dp2916
g138
I3
sg9
(ielbow.chemistry.xyzClass
xyzClass
p2917
(dp2918
g12
I1
sg13
F57.295779513082323
sS'y'
F-1.6060000000000001
sS'x'
F2.9279999999999999
sg14
g59
sS'z'
F-0.93799999999999994
sbsg184
I0
sg16
(ielbow.chemistry.xyzClass
xyzClass
p2919
(dp2920
g12
I0
sg13
F57.295779513082323
sS'y'
F-4.4408920985006262e-16
sS'x'
F-1.6000000000000005
sg14
g203
sS'z'
F0
sbsg156
S'C'
sg177
S'Y'
sg222
I01
sg29
I00
sg14
(ielbow.chemistry.xyzClass
xyzClass
p2921
(dp2922
g12
I0
sg13
F57.295779513082323
sS'y'
F5.4206095378185085e-16
sS'x'
F-6.0384282068523073e-32
sg14
(F-6.0384282068523073e-32
F5.4206095378185085e-16
F-1.6000000000000005
tp2923
sS'z'
F-1.6000000000000005
sbsba(ielbow.chemistry.RingClass
empty
p2924
(dp2925
g138
I2
sg9
(ielbow.chemistry.xyzClass
xyzClass
p2926
(dp2927
g12
I1
sg13
F57.295779513082323
sS'y'
F-1.9239999999999999
sS'x'
F4.1689999999999996
sg14
g43
sS'z'
F-1.456
sbsg184
I1
sg16
(ielbow.chemistry.xyzClass
xyzClass
p2928
(dp2929
g12
I0
sg13
F57.295779513082323
sS'y'
F-1.3856406460551023
sS'x'
F-0.80000000000000016
sg14
g197
sS'z'
F0
sbsg156
S'C'
sg177
S'Y'
sg222
I01
sg29
I00
sg14
(ielbow.chemistry.xyzClass
xyzClass
p2930
(dp2931
g12
I0
sg13
F57.295779513082323
sS'y'
F1.3856406460551023
sS'x'
F-1.6969203819598516e-16
sg14
(F-1.6969203819598516e-16
F1.3856406460551023
F-0.80000000000000004
tp2932
sS'z'
F-0.80000000000000004
sbsbatRp2933
(dp2934
g1478
(lp2935
F1.385372
aF1.385372
aF1.385372
aF1.385372
aF1.385372
aF1.385372
asbag1
(g2746
g3
(lp2936
(ielbow.chemistry.RingClass
empty
p2937
(dp2938
g138
I4
sg9
(ielbow.chemistry.xyzClass
xyzClass
p2939
(dp2940
g12
I1
sg13
F57.295779513082323
sS'y'
F-0.41399999999999998
sS'x'
F2.7469999999999999
sg14
g75
sS'z'
F-0.253
sbsg184
I0
sg16
(ielbow.chemistry.xyzClass
xyzClass
p2941
(dp2942
g12
I0
sg13
F57.295779513082323
sS'y'
F-1.3856406460551023
sS'x'
F0.80000000000000082
sg14
g268
sS'z'
F0
sbsg156
S'C'
sg177
S'Y'
sg222
I01
sg29
I01
sg14
(ielbow.chemistry.xyzClass
xyzClass
p2943
(dp2944
g12
I0
sg13
F57.295779513082323
sS'y'
F8.8817841970012523e-16
sS'x'
F0.00018551255971199776
sg14
(F0.00018551255971199776
F8.8817841970012523e-16
I0
tp2945
sS'z'
I0
sbsba(ielbow.chemistry.RingClass
empty
p2946
(dp2947
g138
I10
sg9
(ielbow.chemistry.xyzClass
xyzClass
p2948
(dp2949
g12
I1
sg13
F57.295779513082323
sS'y'
F-0.11700000000000001
sS'x'
F1.52
sg14
g259
sS'z'
F0.25800000000000001
sbsg184
I1
sg16
(ielbow.chemistry.xyzClass
xyzClass
p2950
(dp2951
g12
I0
sg13
F57.295779513082323
sS'y'
F4.4408920985006262e-16
sS'x'
F1.6000000000000005
sg14
g262
sS'z'
F0
sbsg156
S'O'
sg222
I01
sg29
I00
sg14
(ielbow.chemistry.xyzClass
xyzClass
p2952
(dp2953
g12
I0
sg13
F57.295779513082323
sS'y'
I0
sS'x'
F1.398717
sg14
(F1.398717
I0
I0
tp2954
sS'z'
I0
sbsba(ielbow.chemistry.RingClass
empty
p2955
(dp2956
g138
I9
sg9
(ielbow.chemistry.xyzClass
xyzClass
p2957
(dp2958
g12
I1
sg13
F57.295779513082323
sS'y'
F1.25
sS'x'
F1.2849999999999999
sg14
g250
sS'z'
F0.61299999999999999
sbsg184
I0
sg16
(ielbow.chemistry.xyzClass
xyzClass
p2959
(dp2960
g12
I0
sg13
F57.295779513082323
sS'y'
F1.3856406460551023
sS'x'
F0.79999999999999971
sg14
g253
sS'z'
F0
sbsg156
S'C'
sg222
I01
sg29
I00
sg14
(ielbow.chemistry.xyzClass
xyzClass
p2961
(dp2962
g12
I0
sg13
F57.295779513082323
sS'y'
F1.2038171856399686
sS'x'
F2.1109202221542285
sg14
(F2.1109202221542285
F1.2038171856399686
I0
tp2963
sS'z'
I0
sbsba(ielbow.chemistry.RingClass
empty
p2964
(dp2965
g138
I8
sg9
(ielbow.chemistry.xyzClass
xyzClass
p2966
(dp2967
g12
I1
sg13
F57.295779513082323
sS'y'
F1.7569999999999999
sS'x'
F2.4980000000000002
sg14
g241
sS'z'
F1.4039999999999999
sbsg184
I1
sg16
(ielbow.chemistry.xyzClass
xyzClass
p2968
(dp2969
g12
I0
sg13
F57.295779513082323
sS'y'
F1.3856406460551018
sS'x'
F-0.8000000000000006
sg14
g244
sS'z'
F0
sbsg156
S'C'
sg222
I01
sg29
I00
sg14
(ielbow.chemistry.xyzClass
xyzClass
p2970
(dp2971
g12
I0
sg13
F57.295779513082323
sS'y'
F2.5036419537722767
sS'x'
F1.3093159606724227
sg14
(F1.3093159606724227
F2.5036419537722767
I0
tp2972
sS'z'
I0
sbsba(ielbow.chemistry.RingClass
empty
p2973
(dp2974
g138
I7
sg9
(ielbow.chemistry.xyzClass
xyzClass
p2975
(dp2976
g12
I1
sg13
F57.295779513082323
sS'y'
F1.6379999999999999
sS'x'
F3.657
sg14
g232
sS'z'
F0.57299999999999995
sbsg184
I0
sg16
(ielbow.chemistry.xyzClass
xyzClass
p2977
(dp2978
g12
I0
sg13
F57.295779513082323
sS'y'
F-4.4408920985006262e-16
sS'x'
F-1.6000000000000005
sg14
g235
sS'z'
F0
sbsg156
S'O'
sg222
I01
sg29
I00
sg14
(ielbow.chemistry.xyzClass
xyzClass
p2979
(dp2980
g12
I0
sg13
F57.295779513082323
sS'y'
F2.4281554112857422
sS'x'
F-0.08736260936165241
sg14
(F-0.08736260936165241
F2.4281554112857422
I0
tp2981
sS'z'
I0
sbsba(ielbow.chemistry.RingClass
empty
p2982
(dp2983
g138
I5
sg9
(ielbow.chemistry.xyzClass
xyzClass
p2984
(dp2985
g12
I1
sg13
F57.295779513082323
sS'y'
F0.46000000000000002
sS'x'
F3.8149999999999999
sg14
g91
sS'z'
F-0.089999999999999997
sbsg184
I1
sg16
(ielbow.chemistry.xyzClass
xyzClass
p2986
(dp2987
g12
I0
sg13
F57.295779513082323
sS'y'
F-1.3856406460551023
sS'x'
F-0.80000000000000016
sg14
g274
sS'z'
F0
sbsg156
S'C'
sg177
S'Y'
sg222
I01
sg29
I01
sg14
(ielbow.chemistry.xyzClass
xyzClass
p2988
(dp2989
g12
I0
sg13
F57.295779513082323
sS'y'
F1.1819492535682032
sS'x'
F-0.7224842186270658
sg14
(F-0.7224842186270658
F1.1819492535682032
I0
tp2990
sS'z'
I0
sbsbatRp2991
(dp2992
g1478
(lp2993
F1.398717
aF1.398717
aF1.527126
aF1.398717
aF1.398717
aF1.385372
asbasg1212
I01
sg1213
g2330
sg1247
I01
sg2854
(dp2994
(F0.00067700028804755226
F1.155399949904184
tp2995
(lp2996
I0
aI1
assg1245
(lp2997
I0
aI0
aI0
aF1.5707963267948966
aF1.5707963267948966
aF1.5707963267948966
aI10
aI10
aI10
aF1.5707963267948966
aF1.5707963267948966
aF1.5707963267948966
asg1241
(tsg2376
g2595
sg1236
I00
sg1248
I01
sg1250
g2622
sbasS'optimise'
p2998
I01
sg1681
g1941
sS'CIF_name'
p2999
S'Unknown'
p3000
sS'used_auto_bond'
p3001
I00
sg1942
g2329
sS'auto_bond_cutoff'
p3002
F4
sg1212
I01
sS'CIFWeights'
p3003
(dp3004
g1217
F3
sg1254
F30
sS'outer_ring'
p3005
F0.050000000000000003
sS'amine'
p3006
F0.10000000000000001
sS'peptide'
p3007
F0.10000000000000001
sS'inner_ring'
p3008
F0.02
sg1218
F0.02
ssS'last'
p3009
Nsg165
S''
sS'amine_class'
p3010
g1
(g2399
g3
(ltRp3011
(dp3012
g2376
g1
(g1388
g1389
(dtRp3013
(dp3014
g1426
Nsg1418
(dp3015
sg1433
I00
sg1420
(lp3016
sg1424
(dp3017
sbsg2408
(lp3018
sbsS'G_md5'
p3019
S'66d52591363555ff3b6fc31a5b7613f1'
p3020
sS'files_written'
p3021
g1
(celbow.utilities.Utilities
PushFilename
p3022
g3
(lp3023
S'/home/holly/test_ligand/5fv7/R3Z.pdb'
p3024
aS'/home/holly/test_ligand/5fv7/R3Z.cif'
p3025
atRp3026
sg1247
I01
sS'azide_class'
p3027
g1
(g2399
g3
(ltRp3028
(dp3029
g2376
g1
(g1388
g1389
(dtRp3030
(dp3031
g1426
Nsg1418
(dp3032
sg1433
I00
sg1420
(lp3033
sg1424
(dp3034
sbsg2408
(lp3035
sbsS'SubUnitEnergies'
p3036
(dp3037
(I11
I12
I230
tp3038
F149.69470433593744
s(I9
I11
I350
tp3039
F144.85240509843138
s(I9
I11
I160
tp3040
F145.97439440174014
s(I9
I11
I50
tp3041
F146.43232887903494
s(I11
I12
I40
tp3042
F145.61731179395491
s(I9
I11
I260
tp3043
F144.39880045564098
s(I11
I12
I190
tp3044
F145.58936315334313
s(I9
I11
I150
tp3045
F146.20210748494549
s(I9
I11
I120
tp3046
F146.95536937188805
s(I11
I12
I210
tp3047
F146.7143094120639
s(I9
I11
I330
tp3048
F144.4891503229741
s(I9
I11
I220
tp3049
F145.21773443646663
s(I11
I12
I260
tp3050
F155.90136314395275
s(I11
I12
I170
tp3051
F145.27897031966006
s(I9
I11
I130
tp3052
F146.77019472792566
s(I9
I11
I20
tp3053
F145.57600962172285
s(I9
I11
I230
tp3054
F145.01627143970296
s(I11
I12
I220
tp3055
F147.81930306656443
s(I9
I11
I200
tp3056
F145.50566151124886
s(I9
I11
I90
tp3057
F147.13140722877759
s(I11
I12
I240
tp3058
F153.05738433349157
s(I9
I11
I300
tp3059
F144.18228316866447
s(I9
I11
I190
tp3060
F145.60396626055518
s(I11
I12
I20
tp3061
F144.98766789251815
s(I9
I11
I0
tp3062
F145.07202105816691
s(I11
I12
I200
tp3063
F146.01949681979988
s(I9
I11
I100
tp3064
F147.10681175750662
s(I11
I12
I350
tp3065
F145.36423960189083
s(I9
I11
I170
tp3066
F145.81342416897601
s(I11
I12
I0
tp3067
F145.07202105816691
s(I9
I11
I60
tp3068
F146.70907512871153
s(I11
I12
I150
tp3069
F145.55561711239665
s(I9
I11
I270
tp3070
F144.26539636005171
s(I11
I12
I330
tp3071
F146.52376315558297
s(I11
I12
I110
tp3072
F153.34258297835513
s(I9
I11
I70
tp3073
F146.94219525571756
s(I9
I11
I40
tp3074
F146.14183558500997
s(I11
I12
I130
tp3075
F146.61825422722427
s(I9
I11
I140
tp3076
F146.49051701152422
s(I9
I11
I30
tp3077
F145.85373083638396
s(I11
I12
I180
tp3078
F145.35456417870103
s(I11
I12
I90
tp3079
F153.56163692379147
s(I11
I12
I140
tp3080
F145.94013944372742
s(I9
I11
I10
tp3081
F145.31408039068978
s(I11
I12
I160
tp3082
F145.34571458034429
s(I11
I12
I310
tp3083
F148.72206775047385
s(I9
I11
I110
tp3084
F147.05224219821059
s(I9
I11
I240
tp3085
F144.79491545766095
s(I11
I12
I120
tp3086
F148.07319333054193
s(I9
I11
I340
tp3087
F144.65725883873191
s(I11
I12
I270
tp3088
F159.20434260846412
s(I11
I12
I290
tp3089
F154.44313789744052
s(I11
I12
I70
tp3090
F147.78629902159796
s(I11
I12
I340
tp3091
F145.84070071820668
s(I9
I11
I320
tp3092
F144.35138035489425
s(I11
I12
I250
tp3093
F154.73171282111028
s(I9
I11
I210
tp3094
F145.38144517166313
s(I11
I12
I30
tp3095
F145.20133008105924
s(I9
I11
I310
tp3096
F144.247696446204
s(I11
I12
I300
tp3097
F150.71394974153753
s(I9
I11
I280
tp3098
F144.18619773275111
s(I11
I12
I50
tp3099
F146.25868803361809
s(I11
I12
I320
tp3100
F147.44759806775758
s(I11
I12
I100
tp3101
F176.18697604573842
s(I9
I11
I80
tp3102
F147.08941098162705
s(I11
I12
I10
tp3103
F144.94809659769425
s(I9
I11
I290
tp3104
F144.16000524773145
s(I11
I12
I280
tp3105
F159.85553858676431
s(I9
I11
I180
tp3106
F145.6983479510267
s(I11
I12
I60
tp3107
F147.03736813635552
s(I9
I11
I250
tp3108
F144.58064057685729
s(I11
I12
I80
tp3109
F148.96614665930244
ssS'lines'
p3110
S'data_R3Z\n#\n_chem_comp.id                                    R3Z\n_chem_comp.name                                  "1-[(2S)-2,3-dihydro-1,4-benzodioxin-2-ylmethyl]-3-hydroxythieno[3,2-d]pyrimidine-2,4(1H,3H)-dione"\n_chem_comp.type                                  NON-POLYMER\n_chem_comp.pdbx_type                             HETAIN\n_chem_comp.formula                               "C15 H12 N2 O5 S"\n_chem_comp.mon_nstd_parent_comp_id               ?\n_chem_comp.pdbx_synonyms                         ?\n_chem_comp.pdbx_formal_charge                    0\n_chem_comp.pdbx_initial_date                     2016-02-04\n_chem_comp.pdbx_modified_date                    2016-08-12\n_chem_comp.pdbx_ambiguous_flag                   N\n_chem_comp.pdbx_release_status                   REL\n_chem_comp.pdbx_replaced_by                      ?\n_chem_comp.pdbx_replaces                         ?\n_chem_comp.formula_weight                        332.331\n_chem_comp.one_letter_code                       ?\n_chem_comp.three_letter_code                     R3Z\n_chem_comp.pdbx_model_coordinates_details        ?\n_chem_comp.pdbx_model_coordinates_missing_flag   N\n_chem_comp.pdbx_ideal_coordinates_details        Corina\n_chem_comp.pdbx_ideal_coordinates_missing_flag   N\n_chem_comp.pdbx_model_coordinates_db_code        5FV7\n_chem_comp.pdbx_subcomponent_list                ?\n_chem_comp.pdbx_processing_site                  EBI\n#\nloop_\n_chem_comp_atom.comp_id\n_chem_comp_atom.atom_id\n_chem_comp_atom.alt_atom_id\n_chem_comp_atom.type_symbol\n_chem_comp_atom.charge\n_chem_comp_atom.pdbx_align\n_chem_comp_atom.pdbx_aromatic_flag\n_chem_comp_atom.pdbx_leaving_atom_flag\n_chem_comp_atom.pdbx_stereo_config\n_chem_comp_atom.model_Cartn_x\n_chem_comp_atom.model_Cartn_y\n_chem_comp_atom.model_Cartn_z\n_chem_comp_atom.pdbx_model_Cartn_x_ideal\n_chem_comp_atom.pdbx_model_Cartn_y_ideal\n_chem_comp_atom.pdbx_model_Cartn_z_ideal\n_chem_comp_atom.pdbx_component_atom_id\n_chem_comp_atom.pdbx_component_comp_id\n_chem_comp_atom.pdbx_ordinal\nR3Z C1   C1   C 0 1 Y N N -13.869 -8.134 -1.110 5.233  -1.057 -1.293 C1   R3Z 1\nR3Z C2   C2   C 0 1 Y N N -14.944 -8.084 -1.991 4.169  -1.924 -1.456 C2   R3Z 2\nR3Z C3   C3   C 0 1 Y N N -15.844 -7.025 -1.942 2.928  -1.606 -0.938 C3   R3Z 3\nR3Z C4   C4   C 0 1 Y N N -15.680 -6.003 -1.005 2.747  -0.414 -0.253 C4   R3Z 4\nR3Z C5   C5   C 0 1 Y N N -14.597 -6.062 -0.118 3.815  0.460  -0.090 C5   R3Z 5\nR3Z C6   C6   C 0 1 Y N N -13.695 -7.125 -0.171 5.058  0.133  -0.611 C6   R3Z 6\nR3Z O7   O7   O 0 1 N N N -14.417 -5.076 0.802  3.657  1.638  0.573  O7   R3Z 7\nR3Z C8   C8   C 0 1 N N N -15.568 -4.282 1.129  2.498  1.757  1.404  C8   R3Z 8\nR3Z C9   C9   C 0 1 N N S -16.280 -3.809 -0.156 1.285  1.250  0.613  C9   R3Z 9\nR3Z O10  O10  O 0 1 N N N -16.582 -4.964 -0.963 1.520  -0.117 0.258  O10  R3Z 10\nR3Z C11  C11  C 0 1 N N N -17.549 -2.980 0.153  0.026  1.349  1.477  C11  R3Z 11\nR3Z N12  N12  N 0 1 N N N -18.362 -3.489 1.286  -1.128 0.864  0.717  N12  R3Z 12\nR3Z C13  C13  C 0 1 Y N N -19.292 -4.521 1.051  -1.477 -0.492 0.774  C13  R3Z 13\nR3Z C14  C14  C 0 1 Y N N -19.601 -5.185 -0.132 -0.882 -1.536 1.473  C14  R3Z 14\nR3Z C15  C15  C 0 1 Y N N -20.536 -6.123 -0.031 -1.454 -2.728 1.322  C15  R3Z 15\nR3Z S16  S16  S 0 1 Y N N -21.118 -6.262 1.566  -2.800 -2.641 0.281  S16  R3Z 16\nR3Z C17  C17  C 0 1 Y N N -20.048 -4.986 2.122  -2.574 -0.914 0.043  C17  R3Z 17\nR3Z C18  C18  C 0 1 N N N -19.870 -4.415 3.414  -3.297 0.030  -0.729 C18  R3Z 18\nR3Z O19  O19  O 0 1 N N N -20.527 -4.816 4.364  -4.265 -0.324 -1.378 O19  R3Z 19\nR3Z N20  N20  N 0 1 N N N -18.971 -3.424 3.584  -2.909 1.319  -0.740 N20  R3Z 20\nR3Z C21  C21  C 0 1 N N N -18.238 -2.974 2.538  -1.846 1.722  -0.024 C21  R3Z 21\nR3Z O22  O22  O 0 1 N N N -17.438 -2.078 2.744  -1.523 2.895  -0.052 O22  R3Z 22\nR3Z O23  O23  O 0 1 N N N -18.803 -2.860 4.876  -3.631 2.261  -1.512 O23  R3Z 23\nR3Z H1   H1   H 0 1 N N N -13.170 -8.956 -1.156 6.203  -1.311 -1.694 H1   R3Z 24\nR3Z H2   H2   H 0 1 N N N -15.081 -8.872 -2.717 4.309  -2.853 -1.990 H2   R3Z 25\nR3Z H3   H3   H 0 1 N N N -16.674 -6.993 -2.632 2.099  -2.285 -1.068 H3   R3Z 26\nR3Z H6   H6   H 0 1 N N N -12.863 -7.163 0.517  5.891  0.810  -0.485 H6   R3Z 27\nR3Z H8   H8   H 0 1 N N N -16.266 -4.885 1.728  2.627  1.156  2.304  H8   R3Z 28\nR3Z H8A  H8A  H 0 1 N N N -15.249 -3.404 1.710  2.348  2.802  1.678  H8A  R3Z 29\nR3Z H9   H9   H 0 1 N N N -15.583 -3.160 -0.706 1.159  1.848  -0.290 H9   R3Z 30\nR3Z H11  H11  H 0 1 N N N -17.237 -1.952 0.390  0.153  0.742  2.374  H11  R3Z 31\nR3Z H11A H11A H 0 0 N N N -18.182 -2.974 -0.747 -0.137 2.388  1.763  H11A R3Z 32\nR3Z H14  H14  H 0 1 N N N -19.114 -4.954 -1.068 -0.013 -1.389 2.096  H14  R3Z 33\nR3Z H15  H15  H 0 1 N N N -20.885 -6.724 -0.858 -1.109 -3.634 1.798  H15  R3Z 34\nR3Z HO23 HO23 H 0 0 N N N -18.141 -2.180 4.841  -4.382 1.884  -1.991 HO23 R3Z 35\n#\nloop_\n_chem_comp_bond.comp_id\n_chem_comp_bond.atom_id_1\n_chem_comp_bond.atom_id_2\n_chem_comp_bond.value_order\n_chem_comp_bond.pdbx_aromatic_flag\n_chem_comp_bond.pdbx_stereo_config\n_chem_comp_bond.pdbx_ordinal\nR3Z C1  C2   DOUB Y N 1\nR3Z C1  C6   SING Y N 2\nR3Z C2  C3   SING Y N 3\nR3Z C3  C4   DOUB Y N 4\nR3Z C4  C5   SING Y N 5\nR3Z C4  O10  SING N N 6\nR3Z C5  C6   DOUB Y N 7\nR3Z C5  O7   SING N N 8\nR3Z O7  C8   SING N N 9\nR3Z C8  C9   SING N N 10\nR3Z C9  O10  SING N N 11\nR3Z C9  C11  SING N N 12\nR3Z C11 N12  SING N N 13\nR3Z N12 C13  SING N N 14\nR3Z N12 C21  SING N N 15\nR3Z C13 C14  SING Y N 16\nR3Z C13 C17  DOUB Y N 17\nR3Z C14 C15  DOUB Y N 18\nR3Z C15 S16  SING Y N 19\nR3Z S16 C17  SING Y N 20\nR3Z C17 C18  SING N N 21\nR3Z C18 O19  DOUB N N 22\nR3Z C18 N20  SING N N 23\nR3Z N20 C21  SING N N 24\nR3Z N20 O23  SING N N 25\nR3Z C21 O22  DOUB N N 26\nR3Z C1  H1   SING N N 27\nR3Z C2  H2   SING N N 28\nR3Z C3  H3   SING N N 29\nR3Z C6  H6   SING N N 30\nR3Z C8  H8   SING N N 31\nR3Z C8  H8A  SING N N 32\nR3Z C9  H9   SING N N 33\nR3Z C11 H11  SING N N 34\nR3Z C11 H11A SING N N 35\nR3Z C14 H14  SING N N 36\nR3Z C15 H15  SING N N 37\nR3Z O23 HO23 SING N N 38\n#\nloop_\n_pdbx_chem_comp_descriptor.comp_id\n_pdbx_chem_comp_descriptor.type\n_pdbx_chem_comp_descriptor.program\n_pdbx_chem_comp_descriptor.program_version\n_pdbx_chem_comp_descriptor.descriptor\nR3Z SMILES           ACDLabs              12.01 "c1ccc2c(c1)OCC(O2)CN4c3ccsc3C(=O)N(C4=O)O"\nR3Z InChI            InChI                1.03  "InChI=1S/C15H12N2O5S/c18-14-13-10(5-6-23-13)16(15(19)17(14)20)7-9-8-21-11-3-1-2-4-12(11)22-9/h1-6,9,20H,7-8H2/t9-/m0/s1"\nR3Z InChIKey         InChI                1.03  MXQGCMQXTPTJJT-VIFPVBQESA-N\nR3Z SMILES_CANONICAL CACTVS               3.385 "ON1C(=O)N(C[C@H]2COc3ccccc3O2)c4ccsc4C1=O"\nR3Z SMILES           CACTVS               3.385 "ON1C(=O)N(C[CH]2COc3ccccc3O2)c4ccsc4C1=O"\nR3Z SMILES_CANONICAL "OpenEye OEToolkits" 1.7.6 "c1ccc2c(c1)OC[C@@H](O2)CN3c4ccsc4C(=O)N(C3=O)O"\nR3Z SMILES           "OpenEye OEToolkits" 1.7.6 "c1ccc2c(c1)OCC(O2)CN3c4ccsc4C(=O)N(C3=O)O"\n#\nloop_\n_pdbx_chem_comp_identifier.comp_id\n_pdbx_chem_comp_identifier.type\n_pdbx_chem_comp_identifier.program\n_pdbx_chem_comp_identifier.program_version\n_pdbx_chem_comp_identifier.identifier\nR3Z "SYSTEMATIC NAME" ACDLabs              12.01 "1-[(2S)-2,3-dihydro-1,4-benzodioxin-2-ylmethyl]-3-hydroxythieno[3,2-d]pyrimidine-2,4(1H,3H)-dione"\nR3Z "SYSTEMATIC NAME" "OpenEye OEToolkits" 1.7.6 "1-[[(3S)-2,3-dihydro-1,4-benzodioxin-3-yl]methyl]-3-oxidanyl-thieno[3,2-d]pyrimidine-2,4-dione"\n#\nloop_\n_pdbx_chem_comp_audit.comp_id\n_pdbx_chem_comp_audit.action_type\n_pdbx_chem_comp_audit.date\n_pdbx_chem_comp_audit.processing_site\nR3Z "Create component" 2016-02-04 EBI\nR3Z "Initial release"  2016-08-17 RCSB\n#\n'
p3111
sS'ALT_dihedrals'
p3112
g1
(g1479
g3
(lp3113
g1
(g1944
g3
(lp3114
g5
ag39
ag55
ag71
atRp3115
(dp3116
g1487
(lp3117
S''
aS''
aS''
asg1489
I00
sbag1
(g1944
g3
(lp3118
g5
ag103
ag87
ag71
atRp3119
(dp3120
g1487
(lp3121
S''
aS''
aS''
asg1489
I00
sbag1
(g1944
g3
(lp3122
g39
ag55
ag71
ag87
atRp3123
(dp3124
g1487
(lp3125
S''
aS''
aS''
asg1489
I00
sbag1
(g1944
g3
(lp3126
g39
ag5
ag103
ag87
atRp3127
(dp3128
g1487
(lp3129
S''
aS''
aS''
asg1489
I00
sbag1
(g1944
g3
(lp3130
g55
ag39
ag5
ag103
atRp3131
(dp3132
g1487
(lp3133
S''
aS''
aS''
asg1489
I00
sbag1
(g1944
g3
(lp3134
g55
ag71
ag87
ag103
atRp3135
(dp3136
g1487
(lp3137
S''
aS''
aS''
asg1489
I00
sbag1
(g1944
g3
(lp3138
g55
ag71
ag87
ag316
atRp3139
(dp3140
g1487
(lp3141
S''
aS''
aS''
asg1489
I00
sbag1
(g1944
g3
(lp3142
g5
ag103
ag87
ag316
atRp3143
(dp3144
g1487
(lp3145
S''
aS''
aS''
asg1489
I00
sbag1
(g1944
g3
(lp3146
g71
ag87
ag316
ag329
atRp3147
(dp3148
g1487
(lp3149
S''
aS''
aS''
asg1489
I00
sbag1
(g1944
g3
(lp3150
g103
ag87
ag316
ag329
atRp3151
(dp3152
g1487
(lp3153
S''
aS''
aS''
asg1489
I00
sbag1
(g1944
g3
(lp3154
g71
ag356
ag342
ag329
atRp3155
(dp3156
g1487
(lp3157
S''
aS''
aS''
asg1489
I00
sbag1
(g1944
g3
(lp3158
g87
ag316
ag329
ag342
atRp3159
(dp3160
g1487
(lp3161
S''
aS''
aS''
asg1489
I00
sbag1
(g1944
g3
(lp3162
g55
ag71
ag356
ag342
atRp3163
(dp3164
g1487
(lp3165
S''
aS''
aS''
asg1489
I00
sbag1
(g1944
g3
(lp3166
g87
ag71
ag356
ag342
atRp3167
(dp3168
g1487
(lp3169
S''
aS''
aS''
asg1489
I00
sbag1
(g1944
g3
(lp3170
g39
ag55
ag71
ag356
atRp3171
(dp3172
g1487
(lp3173
S''
aS''
aS''
asg1489
I00
sbag1
(g1944
g3
(lp3174
g103
ag87
ag71
ag356
atRp3175
(dp3176
g1487
(lp3177
S''
aS''
aS''
asg1489
I00
sbag1
(g1944
g3
(lp3178
g316
ag87
ag71
ag356
atRp3179
(dp3180
g1487
(lp3181
S''
aS''
aS''
asg1489
I00
sbag1
(g1944
g3
(lp3182
g316
ag329
ag342
ag356
atRp3183
(dp3184
g1487
(lp3185
S''
aS''
aS''
asg1489
I00
sbag1
(g1944
g3
(lp3186
g316
ag329
ag342
ag392
atRp3187
(dp3188
g1487
(lp3189
S''
aS''
aS''
asg1489
I00
sbag1
(g1944
g3
(lp3190
g71
ag356
ag342
ag392
atRp3191
(dp3192
g1487
(lp3193
S''
aS''
aS''
asg1489
I00
sbag1
(g1944
g3
(lp3194
g329
ag342
ag392
ag408
atRp3195
(dp3196
g1487
(lp3197
S''
aS''
aS''
asg1489
I00
sbag1
(g1944
g3
(lp3198
g356
ag342
ag392
ag408
atRp3199
(dp3200
g1487
(lp3201
S''
aS''
aS''
asg1489
I00
sbag1
(g1944
g3
(lp3202
g342
ag392
ag408
ag424
atRp3203
(dp3204
g1487
(lp3205
S''
aS''
aS''
asg1489
I00
sbag1
(g1944
g3
(lp3206
g392
ag408
ag424
ag440
atRp3207
(dp3208
g1487
(lp3209
S''
aS''
aS''
asg1489
I00
sbag1
(g1944
g3
(lp3210
g408
ag424
ag440
ag456
atRp3211
(dp3212
g1487
(lp3213
S''
aS''
aS''
asg1489
I00
sbag1
(g1944
g3
(lp3214
g424
ag488
ag472
ag456
atRp3215
(dp3216
g1487
(lp3217
S''
aS''
aS''
asg1489
I00
sbag1
(g1944
g3
(lp3218
g424
ag440
ag456
ag472
atRp3219
(dp3220
g1487
(lp3221
S''
aS''
aS''
asg1489
I00
sbag1
(g1944
g3
(lp3222
g408
ag424
ag488
ag472
atRp3223
(dp3224
g1487
(lp3225
S''
aS''
aS''
asg1489
I00
sbag1
(g1944
g3
(lp3226
g440
ag424
ag488
ag472
atRp3227
(dp3228
g1487
(lp3229
S''
aS''
aS''
asg1489
I00
sbag1
(g1944
g3
(lp3230
g392
ag408
ag424
ag488
atRp3231
(dp3232
g1487
(lp3233
S''
aS''
aS''
asg1489
I00
sbag1
(g1944
g3
(lp3234
g456
ag440
ag424
ag488
atRp3235
(dp3236
g1487
(lp3237
S''
aS''
aS''
asg1489
I00
sbag1
(g1944
g3
(lp3238
g440
ag456
ag472
ag488
atRp3239
(dp3240
g1487
(lp3241
S''
aS''
aS''
asg1489
I00
sbag1
(g1944
g3
(lp3242
g408
ag424
ag488
ag504
atRp3243
(dp3244
g1487
(lp3245
S''
aS''
aS''
asg1489
I00
sbag1
(g1944
g3
(lp3246
g440
ag424
ag488
ag504
atRp3247
(dp3248
g1487
(lp3249
S''
aS''
aS''
asg1489
I00
sbag1
(g1944
g3
(lp3250
g456
ag472
ag488
ag504
atRp3251
(dp3252
g1487
(lp3253
S''
aS''
aS''
asg1489
I00
sbag1
(g1944
g3
(lp3254
g408
ag558
ag542
ag504
atRp3255
(dp3256
g1487
(lp3257
S''
aS''
aS''
asg1489
I00
sbag1
(g1944
g3
(lp3258
g424
ag488
ag504
ag520
atRp3259
(dp3260
g1487
(lp3261
S''
aS''
aS''
asg1489
I00
sbag1
(g1944
g3
(lp3262
g472
ag488
ag504
ag520
atRp3263
(dp3264
g1487
(lp3265
S''
aS''
aS''
asg1489
I00
sbag1
(g1944
g3
(lp3266
g424
ag488
ag504
ag542
atRp3267
(dp3268
g1487
(lp3269
S''
aS''
aS''
asg1489
I00
sbag1
(g1944
g3
(lp3270
g472
ag488
ag504
ag542
atRp3271
(dp3272
g1487
(lp3273
S''
aS''
aS''
asg1489
I00
sbag1
(g1944
g3
(lp3274
g392
ag408
ag558
ag542
atRp3275
(dp3276
g1487
(lp3277
S''
aS''
aS''
asg1489
I00
sbag1
(g1944
g3
(lp3278
g424
ag408
ag558
ag542
atRp3279
(dp3280
g1487
(lp3281
S''
aS''
aS''
asg1489
I00
sbag1
(g1944
g3
(lp3282
g342
ag392
ag408
ag558
atRp3283
(dp3284
g1487
(lp3285
S''
aS''
aS''
asg1489
I00
sbag1
(g1944
g3
(lp3286
g440
ag424
ag408
ag558
atRp3287
(dp3288
g1487
(lp3289
S''
aS''
aS''
asg1489
I00
sbag1
(g1944
g3
(lp3290
g488
ag424
ag408
ag558
atRp3291
(dp3292
g1487
(lp3293
S''
aS''
aS''
asg1489
I00
sbag1
(g1944
g3
(lp3294
g488
ag504
ag542
ag558
atRp3295
(dp3296
g1487
(lp3297
S''
aS''
aS''
asg1489
I00
sbag1
(g1944
g3
(lp3298
g520
ag504
ag542
ag558
atRp3299
(dp3300
g1487
(lp3301
S''
aS''
aS''
asg1489
I00
sbag1
(g1944
g3
(lp3302
g392
ag408
ag558
ag574
atRp3303
(dp3304
g1487
(lp3305
S''
aS''
aS''
asg1489
I00
sbag1
(g1944
g3
(lp3306
g424
ag408
ag558
ag574
atRp3307
(dp3308
g1487
(lp3309
S''
aS''
aS''
asg1489
I00
sbag1
(g1944
g3
(lp3310
g504
ag542
ag558
ag574
atRp3311
(dp3312
g1487
(lp3313
S''
aS''
aS''
asg1489
I00
sbag1
(g1944
g3
(lp3314
g488
ag504
ag542
ag708
atRp3315
(dp3316
g1487
(lp3317
S''
aS''
aS''
asg1489
I00
sbag1
(g1944
g3
(lp3318
g520
ag504
ag542
ag708
atRp3319
(dp3320
g1487
(lp3321
S''
aS''
aS''
asg1489
I00
sbag1
(g1944
g3
(lp3322
g408
ag558
ag542
ag708
atRp3323
(dp3324
g1487
(lp3325
S''
aS''
aS''
asg1489
I00
sbag1
(g1944
g3
(lp3326
g574
ag558
ag542
ag708
atRp3327
(dp3328
g1487
(lp3329
S''
aS''
aS''
asg1489
I00
sbag1
(g1944
g3
(lp3330
g55
ag39
ag5
ag1078
atRp3331
(dp3332
g1487
(lp3333
S''
aS''
aS''
asg1489
I00
sbag1
(g1944
g3
(lp3334
g87
ag103
ag5
ag1078
atRp3335
(dp3336
g1487
(lp3337
S''
aS''
aS''
asg1489
I00
sbag1
(g1944
g3
(lp3338
g103
ag5
ag39
ag1051
atRp3339
(dp3340
g1487
(lp3341
S''
aS''
aS''
asg1489
I00
sbag1
(g1944
g3
(lp3342
g1078
ag5
ag39
ag1051
atRp3343
(dp3344
g1487
(lp3345
S''
aS''
aS''
asg1489
I00
sbag1
(g1944
g3
(lp3346
g71
ag55
ag39
ag1051
atRp3347
(dp3348
g1487
(lp3349
S''
aS''
aS''
asg1489
I00
sbag1
(g1944
g3
(lp3350
g5
ag39
ag55
ag1025
atRp3351
(dp3352
g1487
(lp3353
S''
aS''
aS''
asg1489
I00
sbag1
(g1944
g3
(lp3354
g1051
ag39
ag55
ag1025
atRp3355
(dp3356
g1487
(lp3357
S''
aS''
aS''
asg1489
I00
sbag1
(g1944
g3
(lp3358
g87
ag71
ag55
ag1025
atRp3359
(dp3360
g1487
(lp3361
S''
aS''
aS''
asg1489
I00
sbag1
(g1944
g3
(lp3362
g356
ag71
ag55
ag1025
atRp3363
(dp3364
g1487
(lp3365
S''
aS''
aS''
asg1489
I00
sbag1
(g1944
g3
(lp3366
g39
ag5
ag103
ag119
atRp3367
(dp3368
g1487
(lp3369
S''
aS''
aS''
asg1489
I00
sbag1
(g1944
g3
(lp3370
g1078
ag5
ag103
ag119
atRp3371
(dp3372
g1487
(lp3373
S''
aS''
aS''
asg1489
I00
sbag1
(g1944
g3
(lp3374
g71
ag87
ag103
ag119
atRp3375
(dp3376
g1487
(lp3377
S''
aS''
aS''
asg1489
I00
sbag1
(g1944
g3
(lp3378
g316
ag87
ag103
ag119
atRp3379
(dp3380
g1487
(lp3381
S''
aS''
aS''
asg1489
I00
sbag1
(g1944
g3
(lp3382
g87
ag316
ag329
ag949
atRp3383
(dp3384
g1487
(lp3385
S''
aS''
aS''
asg1489
I00
sbag1
(g1944
g3
(lp3386
g356
ag342
ag329
ag949
atRp3387
(dp3388
g1487
(lp3389
S''
aS''
aS''
asg1489
I00
sbag1
(g1944
g3
(lp3390
g392
ag342
ag329
ag949
atRp3391
(dp3392
g1487
(lp3393
S''
aS''
aS''
asg1489
I00
sbag1
(g1944
g3
(lp3394
g87
ag316
ag329
ag971
atRp3395
(dp3396
g1487
(lp3397
S''
aS''
aS''
asg1489
I00
sbag1
(g1944
g3
(lp3398
g356
ag342
ag329
ag971
atRp3399
(dp3400
g1487
(lp3401
S''
aS''
aS''
asg1489
I00
sbag1
(g1944
g3
(lp3402
g392
ag342
ag329
ag971
atRp3403
(dp3404
g1487
(lp3405
S''
aS''
aS''
asg1489
I00
sbag1
(g1944
g3
(lp3406
g316
ag329
ag342
ag905
atRp3407
(dp3408
g1487
(lp3409
S''
aS''
aS''
asg1489
I00
sbag1
(g1944
g3
(lp3410
g949
ag329
ag342
ag905
atRp3411
(dp3412
g1487
(lp3413
S''
aS''
aS''
asg1489
I00
sbag1
(g1944
g3
(lp3414
g971
ag329
ag342
ag905
atRp3415
(dp3416
g1487
(lp3417
S''
aS''
aS''
asg1489
I00
sbag1
(g1944
g3
(lp3418
g71
ag356
ag342
ag905
atRp3419
(dp3420
g1487
(lp3421
S''
aS''
aS''
asg1489
I00
sbag1
(g1944
g3
(lp3422
g408
ag392
ag342
ag905
atRp3423
(dp3424
g1487
(lp3425
S''
aS''
aS''
asg1489
I00
sbag1
(g1944
g3
(lp3426
g329
ag342
ag392
ag844
atRp3427
(dp3428
g1487
(lp3429
S''
aS''
aS''
asg1489
I00
sbag1
(g1944
g3
(lp3430
g356
ag342
ag392
ag844
atRp3431
(dp3432
g1487
(lp3433
S''
aS''
aS''
asg1489
I00
sbag1
(g1944
g3
(lp3434
g905
ag342
ag392
ag844
atRp3435
(dp3436
g1487
(lp3437
S''
aS''
aS''
asg1489
I00
sbag1
(g1944
g3
(lp3438
g424
ag408
ag392
ag844
atRp3439
(dp3440
g1487
(lp3441
S''
aS''
aS''
asg1489
I00
sbag1
(g1944
g3
(lp3442
g558
ag408
ag392
ag844
atRp3443
(dp3444
g1487
(lp3445
S''
aS''
aS''
asg1489
I00
sbag1
(g1944
g3
(lp3446
g329
ag342
ag392
ag866
atRp3447
(dp3448
g1487
(lp3449
S''
aS''
aS''
asg1489
I00
sbag1
(g1944
g3
(lp3450
g356
ag342
ag392
ag866
atRp3451
(dp3452
g1487
(lp3453
S''
aS''
aS''
asg1489
I00
sbag1
(g1944
g3
(lp3454
g905
ag342
ag392
ag866
atRp3455
(dp3456
g1487
(lp3457
S''
aS''
aS''
asg1489
I00
sbag1
(g1944
g3
(lp3458
g424
ag408
ag392
ag866
atRp3459
(dp3460
g1487
(lp3461
S''
aS''
aS''
asg1489
I00
sbag1
(g1944
g3
(lp3462
g558
ag408
ag392
ag866
atRp3463
(dp3464
g1487
(lp3465
S''
aS''
aS''
asg1489
I00
sbag1
(g1944
g3
(lp3466
g408
ag424
ag440
ag807
atRp3467
(dp3468
g1487
(lp3469
S''
aS''
aS''
asg1489
I00
sbag1
(g1944
g3
(lp3470
g488
ag424
ag440
ag807
atRp3471
(dp3472
g1487
(lp3473
S''
aS''
aS''
asg1489
I00
sbag1
(g1944
g3
(lp3474
g472
ag456
ag440
ag807
atRp3475
(dp3476
g1487
(lp3477
S''
aS''
aS''
asg1489
I00
sbag1
(g1944
g3
(lp3478
g424
ag440
ag456
ag778
atRp3479
(dp3480
g1487
(lp3481
S''
aS''
aS''
asg1489
I00
sbag1
(g1944
g3
(lp3482
g807
ag440
ag456
ag778
atRp3483
(dp3484
g1487
(lp3485
S''
aS''
aS''
asg1489
I00
sbag1
(g1944
g3
(lp3486
g488
ag472
ag456
ag778
atRp3487
(dp3488
g1487
(lp3489
S''
aS''
aS''
asg1489
I00
sbag1
(g1944
g3
(lp3490
g504
ag542
ag708
ag724
atRp3491
(dp3492
g1487
(lp3493
S''
aS''
aS''
asg1489
I00
sbag1
(g1944
g3
(lp3494
g558
ag542
ag708
ag724
atRp3495
(dp3496
g1487
(lp3497
S''
aS''
aS''
asg1489
I00
sbatRp3498
sS'ALT_angles'
p3499
g1
(g1479
g3
(lp3500
g1
(g1683
g3
(lp3501
g5
ag39
ag55
atRp3502
(dp3503
g1487
(lp3504
S''
aS''
asg1489
I00
sbag1
(g1683
g3
(lp3505
g39
ag55
ag71
atRp3506
(dp3507
g1487
(lp3508
S''
aS''
asg1489
I00
sbag1
(g1683
g3
(lp3509
g55
ag71
ag87
atRp3510
(dp3511
g1487
(lp3512
S''
aS''
asg1489
I00
sbag1
(g1683
g3
(lp3513
g5
ag103
ag87
atRp3514
(dp3515
g1487
(lp3516
S''
aS''
asg1489
I00
sbag1
(g1683
g3
(lp3517
g39
ag5
ag103
atRp3518
(dp3519
g1487
(lp3520
S''
aS''
asg1489
I00
sbag1
(g1683
g3
(lp3521
g71
ag87
ag103
atRp3522
(dp3523
g1487
(lp3524
S''
aS''
asg1489
I00
sbag1
(g1683
g3
(lp3525
g71
ag87
ag316
atRp3526
(dp3527
g1487
(lp3528
S''
aS''
asg1489
I00
sbag1
(g1683
g3
(lp3529
g103
ag87
ag316
atRp3530
(dp3531
g1487
(lp3532
S''
aS''
asg1489
I00
sbag1
(g1683
g3
(lp3533
g87
ag316
ag329
atRp3534
(dp3535
g1487
(lp3536
S''
aS''
asg1489
I00
sbag1
(g1683
g3
(lp3537
g316
ag329
ag342
atRp3538
(dp3539
g1487
(lp3540
S''
aS''
asg1489
I00
sbag1
(g1683
g3
(lp3541
g71
ag356
ag342
atRp3542
(dp3543
g1487
(lp3544
S''
aS''
asg1489
I00
sbag1
(g1683
g3
(lp3545
g55
ag71
ag356
atRp3546
(dp3547
g1487
(lp3548
S''
aS''
asg1489
I00
sbag1
(g1683
g3
(lp3549
g87
ag71
ag356
atRp3550
(dp3551
g1487
(lp3552
S''
aS''
asg1489
I00
sbag1
(g1683
g3
(lp3553
g329
ag342
ag356
atRp3554
(dp3555
g1487
(lp3556
S''
aS''
asg1489
I00
sbag1
(g1683
g3
(lp3557
g329
ag342
ag392
atRp3558
(dp3559
g1487
(lp3560
S''
aS''
asg1489
I00
sbag1
(g1683
g3
(lp3561
g356
ag342
ag392
atRp3562
(dp3563
g1487
(lp3564
S''
aS''
asg1489
I00
sbag1
(g1683
g3
(lp3565
g342
ag392
ag408
atRp3566
(dp3567
g1487
(lp3568
S''
aS''
asg1489
I00
sbag1
(g1683
g3
(lp3569
g392
ag408
ag424
atRp3570
(dp3571
g1487
(lp3572
S''
aS''
asg1489
I00
sbag1
(g1683
g3
(lp3573
g408
ag424
ag440
atRp3574
(dp3575
g1487
(lp3576
S''
aS''
asg1489
I00
sbag1
(g1683
g3
(lp3577
g424
ag440
ag456
atRp3578
(dp3579
g1487
(lp3580
S''
aS''
asg1489
I00
sbag1
(g1683
g3
(lp3581
g440
ag456
ag472
atRp3582
(dp3583
g1487
(lp3584
S''
aS''
asg1489
I00
sbag1
(g1683
g3
(lp3585
g424
ag488
ag472
atRp3586
(dp3587
g1487
(lp3588
S''
aS''
asg1489
I00
sbag1
(g1683
g3
(lp3589
g408
ag424
ag488
atRp3590
(dp3591
g1487
(lp3592
S''
aS''
asg1489
I00
sbag1
(g1683
g3
(lp3593
g440
ag424
ag488
atRp3594
(dp3595
g1487
(lp3596
S''
aS''
asg1489
I00
sbag1
(g1683
g3
(lp3597
g456
ag472
ag488
atRp3598
(dp3599
g1487
(lp3600
S''
aS''
asg1489
I00
sbag1
(g1683
g3
(lp3601
g424
ag488
ag504
atRp3602
(dp3603
g1487
(lp3604
S''
aS''
asg1489
I00
sbag1
(g1683
g3
(lp3605
g472
ag488
ag504
atRp3606
(dp3607
g1487
(lp3608
S''
aS''
asg1489
I00
sbag1
(g1683
g3
(lp3609
g488
ag504
ag520
atRp3610
(dp3611
g1487
(lp3612
S''
aS''
asg1489
I00
sbag1
(g1683
g3
(lp3613
g488
ag504
ag542
atRp3614
(dp3615
g1487
(lp3616
S''
aS''
asg1489
I00
sbag1
(g1683
g3
(lp3617
g520
ag504
ag542
atRp3618
(dp3619
g1487
(lp3620
S''
aS''
asg1489
I00
sbag1
(g1683
g3
(lp3621
g408
ag558
ag542
atRp3622
(dp3623
g1487
(lp3624
S''
aS''
asg1489
I00
sbag1
(g1683
g3
(lp3625
g392
ag408
ag558
atRp3626
(dp3627
g1487
(lp3628
S''
aS''
asg1489
I00
sbag1
(g1683
g3
(lp3629
g424
ag408
ag558
atRp3630
(dp3631
g1487
(lp3632
S''
aS''
asg1489
I00
sbag1
(g1683
g3
(lp3633
g504
ag542
ag558
atRp3634
(dp3635
g1487
(lp3636
S''
aS''
asg1489
I00
sbag1
(g1683
g3
(lp3637
g408
ag558
ag574
atRp3638
(dp3639
g1487
(lp3640
S''
aS''
asg1489
I00
sbag1
(g1683
g3
(lp3641
g542
ag558
ag574
atRp3642
(dp3643
g1487
(lp3644
S''
aS''
asg1489
I00
sbag1
(g1683
g3
(lp3645
g504
ag542
ag708
atRp3646
(dp3647
g1487
(lp3648
S''
aS''
asg1489
I00
sbag1
(g1683
g3
(lp3649
g558
ag542
ag708
atRp3650
(dp3651
g1487
(lp3652
S''
aS''
asg1489
I00
sbag1
(g1683
g3
(lp3653
g39
ag5
ag1078
atRp3654
(dp3655
g1487
(lp3656
S''
aS''
asg1489
I00
sbag1
(g1683
g3
(lp3657
g103
ag5
ag1078
atRp3658
(dp3659
g1487
(lp3660
S''
aS''
asg1489
I00
sbag1
(g1683
g3
(lp3661
g5
ag39
ag1051
atRp3662
(dp3663
g1487
(lp3664
S''
aS''
asg1489
I00
sbag1
(g1683
g3
(lp3665
g55
ag39
ag1051
atRp3666
(dp3667
g1487
(lp3668
S''
aS''
asg1489
I00
sbag1
(g1683
g3
(lp3669
g39
ag55
ag1025
atRp3670
(dp3671
g1487
(lp3672
S''
aS''
asg1489
I00
sbag1
(g1683
g3
(lp3673
g71
ag55
ag1025
atRp3674
(dp3675
g1487
(lp3676
S''
aS''
asg1489
I00
sbag1
(g1683
g3
(lp3677
g5
ag103
ag119
atRp3678
(dp3679
g1487
(lp3680
S''
aS''
asg1489
I00
sbag1
(g1683
g3
(lp3681
g87
ag103
ag119
atRp3682
(dp3683
g1487
(lp3684
S''
aS''
asg1489
I00
sbag1
(g1683
g3
(lp3685
g316
ag329
ag949
atRp3686
(dp3687
g1487
(lp3688
S''
aS''
asg1489
I00
sbag1
(g1683
g3
(lp3689
g342
ag329
ag949
atRp3690
(dp3691
g1487
(lp3692
S''
aS''
asg1489
I00
sbag1
(g1683
g3
(lp3693
g316
ag329
ag971
atRp3694
(dp3695
g1487
(lp3696
S''
aS''
asg1489
I00
sbag1
(g1683
g3
(lp3697
g342
ag329
ag971
atRp3698
(dp3699
g1487
(lp3700
S''
aS''
asg1489
I00
sbag1
(g1683
g3
(lp3701
g949
ag329
ag971
atRp3702
(dp3703
g1487
(lp3704
S''
aS''
asg1489
I00
sbag1
(g1683
g3
(lp3705
g329
ag342
ag905
atRp3706
(dp3707
g1487
(lp3708
S''
aS''
asg1489
I00
sbag1
(g1683
g3
(lp3709
g356
ag342
ag905
atRp3710
(dp3711
g1487
(lp3712
S''
aS''
asg1489
I00
sbag1
(g1683
g3
(lp3713
g392
ag342
ag905
atRp3714
(dp3715
g1487
(lp3716
S''
aS''
asg1489
I00
sbag1
(g1683
g3
(lp3717
g342
ag392
ag844
atRp3718
(dp3719
g1487
(lp3720
S''
aS''
asg1489
I00
sbag1
(g1683
g3
(lp3721
g408
ag392
ag844
atRp3722
(dp3723
g1487
(lp3724
S''
aS''
asg1489
I00
sbag1
(g1683
g3
(lp3725
g342
ag392
ag866
atRp3726
(dp3727
g1487
(lp3728
S''
aS''
asg1489
I00
sbag1
(g1683
g3
(lp3729
g408
ag392
ag866
atRp3730
(dp3731
g1487
(lp3732
S''
aS''
asg1489
I00
sbag1
(g1683
g3
(lp3733
g844
ag392
ag866
atRp3734
(dp3735
g1487
(lp3736
S''
aS''
asg1489
I00
sbag1
(g1683
g3
(lp3737
g424
ag440
ag807
atRp3738
(dp3739
g1487
(lp3740
S''
aS''
asg1489
I00
sbag1
(g1683
g3
(lp3741
g456
ag440
ag807
atRp3742
(dp3743
g1487
(lp3744
S''
aS''
asg1489
I00
sbag1
(g1683
g3
(lp3745
g440
ag456
ag778
atRp3746
(dp3747
g1487
(lp3748
S''
aS''
asg1489
I00
sbag1
(g1683
g3
(lp3749
g472
ag456
ag778
atRp3750
(dp3751
g1487
(lp3752
S''
aS''
asg1489
I00
sbag1
(g1683
g3
(lp3753
g542
ag708
ag724
atRp3754
(dp3755
g1487
(lp3756
S''
aS''
asg1489
I00
sbatRp3757
sS'temp_cif'
p3758
S'/tmp/tmpfVxFhY'
p3759
sg2341
g1
(g2342
g3
(lp3760
g2673
ag2677
ag2681
ag2685
ag2689
ag2693
ag2697
ag2701
ag2705
ag2709
ag2364
ag2369
ag2633
ag2637
ag2641
ag2645
ag2649
ag2653
ag2657
ag2661
ag2665
ag1
(g2344
g3
(lp3761
g520
ag504
aF1.1857557655138811
ag488
aF119.93803247618456
ag424
aF179.84292118769383
atRp3762
(dp3763
g2348
I2
sg2349
I6
sg2350
I01
sg2351
(lp3764
I00
aI00
aI00
asg2353
I00
sg2354
I4
sg1476
F1.1857557655138811
sbag1
(g2344
g3
(lp3765
g574
ag558
aF1.1831523454526913
ag408
aF120.13876976241266
ag392
aF3.8904524603245449
atRp3766
(dp3767
g2348
I2
sg2349
I6
sg2350
I01
sg2351
(lp3768
I00
aI00
aI00
asg2353
I00
sg2354
I4
sg1476
F1.1831523454526913
sbag1
(g2344
g3
(lp3769
g708
ag542
aF1.406271564223361
ag504
aF120.14056854464934
ag488
aF-179.92878075238499
atRp3770
(dp3771
g2348
I2
sg2349
I6
sg2350
I01
sg2351
(lp3772
I00
aI00
aI00
asg2353
I00
sg2354
I4
sg1476
F1.406271564223361
sbag1
(g2344
g3
(lp3773
g1078
ag5
aF1.0833090000000001
ag39
aF119.97036855682251
ag55
aF180
atRp3774
(dp3775
g2348
I2
sg2349
I6
sg2350
I01
sg2351
(lp3776
I00
aI00
aI00
asg2353
I00
sg2354
I4
sg1476
F1.0833090000000001
sbag1
(g2344
g3
(lp3777
g1051
ag39
aF1.0833090000000001
ag5
aF119.97082155369812
ag103
aF180
atRp3778
(dp3779
g2348
I2
sg2349
I6
sg2350
I01
sg2351
(lp3780
I00
aI00
aI00
asg2353
I00
sg2354
I4
sg1476
F1.0833090000000001
sbag1
(g2344
g3
(lp3781
g1025
ag55
aF1.0833090000000001
ag39
aF119.99376885870208
ag5
aF180
atRp3782
(dp3783
g2348
I2
sg2349
I6
sg2350
I01
sg2351
(lp3784
I00
aI00
aI00
asg2353
I00
sg2354
I4
sg1476
F1.0833090000000001
sbag1
(g2344
g3
(lp3785
g119
ag103
aF1.0833090000000001
ag5
aF119.99218347510782
ag39
aF-180
atRp3786
(dp3787
g2348
I2
sg2349
I6
sg2350
I01
sg2351
(lp3788
I00
aI00
aI00
asg2353
I00
sg2354
I4
sg1476
F1.0833090000000001
sbag1
(g2344
g3
(lp3789
g949
ag329
aF1.0833090000000001
ag316
aF108.73151553476619
ag87
aF82.580151652326975
atRp3790
(dp3791
g2348
I2
sg2349
I6
sg2350
I01
sg2351
(lp3792
I00
aI00
aI00
asg2353
I00
sg2354
I4
sg1476
F1.0833090000000001
sbag1
(g2344
g3
(lp3793
g971
ag329
aF1.0833090000000001
ag316
aF108.72909741634271
ag87
aF-158.71930477020672
atRp3794
(dp3795
g2348
I2
sg2349
I6
sg2350
I01
sg2351
(lp3796
I00
aI00
aI00
asg2353
I00
sg2354
I4
sg1476
F1.0833090000000001
sbag1
(g2344
g3
(lp3797
g844
ag392
aF1.0833090000000001
ag342
aF109.46894483970839
ag329
aF-86.140227899649062
atRp3798
(dp3799
g2348
I2
sg2349
I6
sg2350
I01
sg2351
(lp3800
I00
aI00
aI00
asg2353
I00
sg2354
I4
sg1476
F1.0833090000000001
sbag1
(g2344
g3
(lp3801
g866
ag392
aF1.0833090000000001
ag342
aF109.46826584805602
ag329
aF153.87295216075887
atRp3802
(dp3803
g2348
I2
sg2349
I6
sg2350
I01
sg2351
(lp3804
I00
aI00
aI00
asg2353
I00
sg2354
I4
sg1476
F1.0833090000000001
sbag1
(g2344
g3
(lp3805
g807
ag440
aF1.0833090000000001
ag424
aF125.84819987038561
ag408
aF-0.0046182775782184641
atRp3806
(dp3807
g2348
I2
sg2349
I6
sg2350
I01
sg2351
(lp3808
I00
aI00
aI00
asg2353
I00
sg2354
I4
sg1476
F1.0833090000000001
sbag1
(g2344
g3
(lp3809
g778
ag456
aF1.0833090000000001
ag440
aF126.00414856476564
ag424
aF-176.1367772128217
atRp3810
(dp3811
g2348
I2
sg2349
I6
sg2350
I01
sg2351
(lp3812
I00
aI00
aI00
asg2353
I00
sg2354
I4
sg1476
F1.0833090000000001
sbag1
(g2344
g3
(lp3813
g724
ag708
aF0.94288300000000003
ag542
aF109.47647388270786
ag504
aF90.805334539158849
atRp3814
(dp3815
g2348
I2
sg2349
I6
sg2350
I01
sg2351
(lp3816
I00
aI00
aI00
asg2353
I00
sg2354
I4
sg1476
F0.94288300000000003
sbatRp3817
(dp3818
g1212
I01
sg1213
g2330
sg1477
g1105
sg1478
g1604
sg1247
I01
sg2374
(lp3819
g5
ag39
ag55
ag71
ag87
ag103
ag316
ag356
ag329
ag342
ag392
ag905
ag408
ag424
ag440
ag456
ag472
ag488
ag504
ag542
ag558
ag520
ag574
ag708
ag1078
ag1051
ag1025
ag119
ag949
ag971
ag844
ag866
ag807
ag778
ag724
asg2351
(dp3820
I32
(lp3821
I6
asI33
(lp3822
I6
asI34
(lp3823
I6
asI21
(lp3824
I6
asI22
(lp3825
I6
asI23
(lp3826
I6
asI24
(lp3827
I6
asI25
(lp3828
I6
asI26
(lp3829
I6
asI27
(lp3830
I6
asI28
(lp3831
I6
asI29
(lp3832
I6
asI30
(lp3833
I6
asI31
(lp3834
I6
assg2376
g1
(g1388
g1389
(dp3835
I1
(F0
F0
F0
tp3836
sI2
(F1.3995890563710698
F0
F0
tp3837
sI3
(F2.1009280760216908
F0
F1.2087952418832375
tp3838
sI4
(F1.3966723849080442
F-0.0011199011777790174
F2.4310052276686238
tp3839
sI5
(F-0.0061262231566701075
F-0.0014034943410120564
F2.4328842556425991
tp3840
sI6
(F-0.69640507841471178
F-0.00095199309325612195
F1.2117126985337883
tp3841
sI7
(F-0.7045895981524174
F1.1664963103855344
F2.8763827283761474
tp3842
sI8
(F0.47959582092058917
F1.7839046553431859
F3.2615933311874996
tp3843
sI9
(F1.8970583986260965
F0.54172610822539569
F2.6987646584101803
tp3844
sI10
(F0.67936411930960738
F1.2121101410823569
F2.6834880039605071
tp3845
sI11
(F1.6099507248119904
F2.021158888147002
F2.9456687960962098
tp3846
sI12
(F1.1936972015162128
F1.3820986797081369
F4.4649893858118652
tp3847
sI13
(F2.6560474412367716
F1.4333474751140465
F4.6016466526150044
tp3848
sg2532
g2533
sI15
(F5.041276042875543
F2.0975028539970557
F4.888416588365728
tp3849
sI16
(F4.9382582731262508
F0.58926139506918407
F4.5161687072157664
tp3850
sI17
(F3.3988686555302423
F0.25097904621487443
F4.3524708432517629
tp3851
sI18
(F2.6743273507715251
F-0.9469637035396552
F3.7883055267860199
tp3852
sI20
(F1.3016527772730371
F-0.81024121198976717
F3.3435685742004106
tp3853
sg2538
g2539
sg2540
g2541
sg2452
g2453
sI30
(F1.206561066649803
F0.87530227893432511
F3.4639435671300869
tp3854
sg2454
g2455
sg2456
g2457
sg2546
g2547
sg2439
g2440
sg2460
g2461
sg2552
g2553
sg2593
g2594
sg2466
g2467
sg1393
g1394
sg2468
g2469
sg2472
g2473
sg2474
g2475
sg2476
g2477
sg2478
g2479
sg1395
g1396
sg2556
g2557
sg1406
g1407
sg2560
g2561
sg2482
g2483
sI14
(F3.6927334983124913
F2.6345747192802689
F4.9484543520127415
tp3855
s(I12
I11
tp3856
(lp3857
F1.5
aF100
asg2484
g2485
sg2486
g2487
sg2490
g2491
sg2492
g2493
sg2496
g2497
sg2488
g2489
sg2502
g2503
sg2536
g2537
sg2584
g2585
sg2504
g2505
sg2587
g2588
sg2589
g2590
sg2511
g2512
sI21
(F0.51764378678390233
F0.07645837072953654
F4.2868630605429558
tp3858
sg2437
g2438
sg2528
g2529
sg2464
g2465
sg2480
g2481
sg2534
g2535
sg2448
g2449
sg2513
g2514
sg2544
g2545
sg2542
g2543
sg2458
g2459
sg2500
g2501
sg2550
g2551
sg1404
g1405
sg1408
g1409
sg2498
g2499
sg1391
g1392
sg2554
g2555
sg2470
g2471
sg2558
g2559
sg2562
g2563
sg2566
g2567
sg2591
g2592
sg2568
g2569
sg2548
g2549
sg2570
g2571
sg2572
g2573
sg2574
g2575
sg2576
g2577
sg2494
g2495
sg2578
g2579
sg2580
g2581
sg2582
g2583
sg2462
g2463
sg2564
g2565
sg2509
g2510
sg1399
g1400
sg2506
g2507
stRp3859
(dp3860
g1418
(dp3861
I1
I0
sI2
I1
sI3
I2
sI4
I3
sI5
I4
sI6
I5
sI7
I6
sI8
I7
sI9
I8
sI10
I9
sI11
I10
sI12
I11
sI13
I12
sI14
I13
sI15
I14
sI16
I15
sI17
I16
sI18
I17
sI20
I18
sI21
I19
sI30
I20
ssg1420
(lp3862
sg1422
(lp3863
F50
asg1424
g2599
sg1426
Nsg1427
(lp3864
g1429
asg1433
I00
sbsg1681
g1941
sg2377
I01
sg1942
g2329
sbsS'small_planar_class'
p3865
g1
(g2399
g3
(lp3866
(lp3867
g558
ag574
ag408
ag558
ag424
ag392
ag542
ag708
ag558
ag504
aa(lp3868
g408
ag558
ag424
ag392
ag574
ag542
aa(lp3869
g542
ag708
ag558
ag504
ag520
ag488
aa(lp3870
g504
ag520
ag542
ag488
aa(lp3871
g558
ag574
ag408
ag542
aatRp3872
(dp3873
g2376
g1
(g1388
g1389
(dtRp3874
(dp3875
g1426
Nsg1418
(dp3876
sg1433
I00
sg1420
(lp3877
sg1424
(dp3878
sbsg2408
(lp3879
I0
aI0
aI0
aI0
aI0
aI0
aI0
aI0
aI0
aI0
aI0
aI0
asbsS'all_rings'
p3880
(lp3881
(lp3882
S'1'
aS'2'
aS'3'
aS'4'
aS'5'
aS'6'
aa(lp3883
S'10'
p3884
aS'4'
aS'5'
aS'7'
aS'8'
aS'9'
aa(lp3885
S'12'
p3886
aS'13'
p3887
aS'17'
p3888
aS'18'
p3889
aS'20'
p3890
aS'21'
p3891
aa(lp3892
S'13'
p3893
aS'14'
p3894
aS'15'
p3895
aS'16'
p3896
aS'17'
p3897
aasS'bonds_md5'
p3898
S'1a316729b746fe6e96091eeb202425f5'
p3899
sg2376
g1
(g1388
g1389
(dp3900
I1
(F7.1295743264678206
F1.5444737133245414
F-3.269845718474774
tp3901
sI2
(F7.1228515853098973
F0.13527657467474824
F-3.1865720327718026
tp3902
sI3
(F6.050381253965492
F-0.52593704531926044
F-2.5765557079652925
tp3903
sI4
(F4.986022333568032
F0.20809728780554626
F-2.049762569513276
tp3904
sI5
(F4.9929208761100625
F1.6260965189330767
F-2.1336237019064552
tp3905
sg2439
g2440
sI7
(F3.9332681583783482
F2.3677491992330157
F-1.4724904119573357
tp3906
sI8
(F3.0795482772331284
F1.6934757631116808
F-0.66155588872576976
tp3907
sI9
(F2.725275159546968
F0.31067886196471578
F-1.198465304401424
tp3908
sI10
(F3.830184058391652
F-0.44587610299567504
F-1.4801115014803883
tp3909
sI11
(F1.8613681030652269
F-0.44064614140169195
F-0.12408256336196039
tp3910
sI12
(F1.0204013762617654
F0.5222515911448683
F0.58608461559850067
tp3911
sI13
(F-0.16402302584088926
F1.0837773431651174
F-0.073156424310356336
tp3912
sI14
(F-0.73769542087316253
F0.90347395270132724
F-1.5627915033778259
tp3913
sI15
(F-1.9463860451113706
F1.68996080905974
F-1.6827131617033249
tp3914
sI16
(F-2.1965193085195382
F2.388275270511818
F-0.32145864262746976
tp3915
sI17
(F-1.0398612026643008
F1.965026030529845
F0.64577292946604825
tp3916
sI18
(F-0.74635263603667656
F2.3170237666840681
F2.0806354946543473
tp3917
sI19
(F-1.4703650831361537
F3.047485150790882
F2.6707616491528534
tp3918
sI20
(F0.41839413856962748
F1.7684868023444098
F2.7386858298902497
tp3919
sI21
(F1.3188471661668506
F0.86221731058477646
F1.9977091413007397
tp3920
sI22
(F2.2744441354906959
F0.40952625354644956
F2.5285148606056542
tp3921
sI23
(F0.69195261641746353
F2.0956784327656752
F4.0787272876530558
tp3922
sI24
(F-20.054450242417584
F-29.630833083716777
F-20.088569500649911
tp3923
sI25
(F35.445370398364112
F-14.916473035817086
F3.4404863796537564
tp3924
sI26
(F-15.652721199979233
F-61.968111144944999
F46.606937163943172
tp3925
sg2452
g2453
sI28
(F-77.423955361281529
F-75.12235917324908
F-5.0634922714714934
tp3926
sI29
(F98.073451984720862
F-95.879385502917785
F90.27432646241553
tp3927
sI30
(F93.655959123112112
F91.930293657663199
F-20.017568192395782
tp3928
sI31
(F29.313785093321204
F6.5191128806318979
F-85.129646580446831
tp3929
sI32
(F-71.652228784165217
F-76.425149261781485
F37.113159893861273
tp3930
sI33
(F-13.460879310617313
F-33.994132936470002
F23.187345656625119
tp3931
sI34
(F-78.70935316701771
F-14.810738553161961
F9.9573399044307038
tp3932
sI35
(F-41.505589985010594
F-60.055443627395803
F86.341321323185056
tp3933
sg2546
g2547
sI6
(F6.0641615548894734
F2.2828591972787291
F-2.7427353148867466
tp3934
sg2460
(I120
F10
tp3935
s(I33
I14
I15
tp3936
(lp3937
F126
aF1
as(I23
I35
tp3938
(lp3939
F0.94288300000000003
aF100
asg2468
(lp3940
F0
aF10
aI0
asg2472
g2473
sg2476
g2477
s(I32
I11
I12
tp3941
(lp3942
F109.47122063449069
aF1
as(I15
I34
tp3943
(lp3944
F1.0833090000000001
aF100
asg2556
g2557
s(I25
I2
I1
tp3945
(lp3946
F120
aF1
asg2482
g2483
sg2532
g2533
s(I25
I2
I3
tp3947
(lp3948
F120
aF1
asg2484
g2485
sg2486
(lp3949
F0
aF10
aI0
asg2490
g2491
sg2492
(I120
F10
tp3950
s(I13
I12
I11
tp3951
(lp3952
F120
aF1
asg2496
g2497
sg2584
(lp3953
F0
aF10
aI0
as(I21
I12
I11
tp3954
(lp3955
F120
aF1
asg2587
g2588
sg2589
g2590
sg2511
g2512
sg2538
(lp3956
F0
aF10
aI0
asg2437
(lp3957
F0
aF10
aI0
as(I34
I15
I14
tp3958
(lp3959
F126
aF1
asg2534
g2535
s(I14
I33
tp3960
(lp3961
F1.0833090000000001
aF100
asg2448
g2449
sg2513
(lp3962
F0
aF1
aI0
as(I8
I28
tp3963
(lp3964
F1.0833090000000001
aF100
asI27
(F-67.685374083337436
F15.395469775851705
F-36.816044583962494
tp3965
sg2500
g2501
s(I11
I31
tp3966
(lp3967
F1.0833090000000001
aF100
asg2550
g2551
s(I30
I9
I10
tp3968
(lp3969
F109.09999999999999
aF1
as(I29
I8
I28
tp3970
(lp3971
F109.47122063449069
aF1
as(I30
I9
I8
tp3972
(lp3973
F109.09999999999999
aF1
as(I26
I3
I2
I1
tp3974
(lp3975
F180
aF1
aI0
asg2554
g2555
s(I33
I14
I13
tp3976
(lp3977
F126
aF1
asg2470
(lp3978
F180
aF1
aI0
as(I27
I6
I5
tp3979
(lp3980
F120
aF1
as(I35
I23
I20
tp3981
(lp3982
F109.47122063449069
aF1
asg2568
g2569
s(I11
I9
I10
tp3983
(lp3984
F109.09999999999999
aF1
asg2578
g2579
sg2580
g2581
sg2582
g2583
sg2462
g2463
s(I22
I21
I20
tp3985
(lp3986
F120
aF1
as(I33
I14
I15
I16
tp3987
(lp3988
F180
aF1
aI0
as(I6
I27
tp3989
(lp3990
F1.0833090000000001
aF100
asg2509
g2510
s(I23
I20
I21
tp3991
(lp3992
F120
aF1
as(I25
I2
I1
I6
tp3993
(lp3994
F180
aF1
aI0
asg2502
g2503
s(I29
I8
I7
tp3995
(lp3996
F109.09999999999999
aF1
asg2540
(lp3997
F0
aF10
aI0
asg2542
(lp3998
F0
aF10
aI0
as(I22
I21
I12
tp3999
(lp4000
F120
aF1
asg2454
g2455
sg2456
g2457
sg2548
g2549
s(I24
I1
I2
I3
tp4001
(lp4002
F180
aF1
aI0
asg2593
g2594
sg2552
(lp4003
F0
aF10
aI0
as(I32
I11
I9
tp4004
(lp4005
F109.47122063449069
aF1
asg2466
(lp4006
F0
aF10
aI0
asg1393
g1394
s(I8
I29
tp4007
(lp4008
F1.0833090000000001
aF100
asg2474
(lp4009
F180
aF1
aI0
as(I12
I11
I9
tp4010
(lp4011
F109.47122063449069
aF1
asg2478
(lp4012
F0
aF1
aI0
as(I11
I9
I8
tp4013
(lp4014
F109.09999999999999
aF1
asg2560
g2561
sg2564
g2565
s(I3
I26
tp4015
(lp4016
F1.0833090000000001
aF100
asg2504
(lp4017
F0
aF1
aI0
as(I29
I8
I9
tp4018
(lp4019
F109.09999999999999
aF1
as(I34
I15
I16
tp4020
(lp4021
F126
aF1
as(I31
I11
I9
tp4022
(lp4023
F109.47122063449069
aF1
as(I21
I22
tp4024
(lp4025
F1.184607
aF100
as(I2
I25
tp4026
(lp4027
F1.0833090000000001
aF100
asg2566
g2567
sg2591
g2592
s(I28
I8
I7
tp4028
(lp4029
F109.09999999999999
aF1
as(I26
I3
I4
tp4030
(lp4031
F120
aF1
as(I27
I6
I1
tp4032
(lp4033
F120
aF1
asg2528
g2529
sg2480
(lp4034
F0
aF10
aI0
as(I24
I1
I2
tp4035
(lp4036
F120
aF1
asg2536
g2537
s(I18
I19
tp4037
(lp4038
F1.184607
aF100
asg2544
g2545
sg2458
g2459
s(I28
I8
I9
tp4039
(lp4040
F109.09999999999999
aF1
asg1399
g1400
s(I26
I3
I2
tp4041
(lp4042
F120
aF1
as(I32
I11
I31
tp4043
(lp4044
F109.47122063449069
aF1
asg1408
g1409
sg2498
g2499
s(I20
I18
I19
tp4045
(lp4046
F120
aF1
as(I1
I24
tp4047
(lp4048
F1.0833090000000001
aF100
as(I27
I6
I1
I2
tp4049
(lp4050
F180
aF1
aI0
asg2558
g2559
sg2562
g2563
s(I31
I11
I12
tp4051
(lp4052
F109.47122063449069
aF1
as(I24
I1
I6
tp4053
(lp4054
F120
aF1
as(I11
I12
tp4055
(lp4056
F1.451533
aF100
asg2488
g2489
sg2570
g2571
s(I20
I23
tp4057
(lp4058
F1.402458
aF100
asg2572
g2573
sg2574
(lp4059
F0
aF10
aI0
asg2576
g2577
sg2494
g2495
s(I11
I32
tp4060
(lp4061
F1.0833090000000001
aF100
asg2464
g2465
s(I23
I20
I18
tp4062
(lp4063
F120
aF1
as(I19
I18
I17
tp4064
(lp4065
F120
aF1
astRp4066
(dp4067
g1420
(lp4068
sg1424
(dp4069
sg1422
(lp4070
F50
asS'plane_weights'
p4071
(lp4072
F0.20000000000000001
aF0.20000000000000001
aF0.02
aF0.02
asg1418
(dp4073
I1
I0
sI2
I1
sI3
I2
sI4
I3
sI5
I4
sI6
I5
sI7
I6
sI8
I7
sI9
I8
sI10
I9
sI11
I10
sI12
I11
sI13
I12
sI14
I13
sI15
I14
sI16
I15
sI17
I16
sI18
I17
sI19
I18
sI20
I19
sI21
I20
sI22
I21
sI23
I22
sI24
I23
sI25
I24
sI26
I25
sI27
I26
sI28
I27
sI29
I28
sI30
I29
sI31
I30
sI32
I31
sI33
I32
sI34
I33
sI35
I34
ssS'planes'
p4074
(lp4075
(lp4076
g392
ag408
ag424
ag440
ag456
ag472
ag488
ag504
ag520
ag542
ag558
ag574
ag708
ag807
ag778
aa(lp4077
g5
ag39
ag55
ag71
ag87
ag103
ag316
ag356
ag1078
ag1051
ag1025
ag119
aasg1426
Nsg1427
(lp4078
g1429
asg1433
I00
sbsg4074
(lp4079
sS'cctbx_energy_parameters'
p4080
(lp4081
F2
aF0.66666666666666663
aF1
aI1
a(I1
I1
I1
I1
tp4082
asg1248
I01
sS'planar_indices'
p4083
(dp4084
(I10
I4
I5
I7
I8
I9
tp4085
I00
s(I13
I17
I16
I15
I14
I12
I21
I20
I18
I17
I13
tp4086
I01
s(I13
I14
I15
I16
I17
tp4087
I01
s(I12
I13
I17
I18
I20
I21
tp4088
I01
s(I1
I6
I5
I4
I3
I2
tp4089
I01
s(I1
I6
I5
I4
I3
I2
I4
I10
I9
I8
I7
I5
tp4090
I00
s(I13
I17
I16
I15
I14
tp4091
I01
s(I1
I2
I3
I4
I5
I6
tp4092
I01
ssb.